ARM GAS  C:\Users\randommm\AppData\Local\Temp\ccIzDNWf.s 			page 1


   1              		.cpu cortex-m3
   2              		.eabi_attribute 20, 1
   3              		.eabi_attribute 21, 1
   4              		.eabi_attribute 23, 3
   5              		.eabi_attribute 24, 1
   6              		.eabi_attribute 25, 1
   7              		.eabi_attribute 26, 1
   8              		.eabi_attribute 30, 1
   9              		.eabi_attribute 34, 1
  10              		.eabi_attribute 18, 4
  11              		.file	"timers.c"
  12              		.text
  13              	.Ltext0:
  14              		.cfi_sections	.debug_frame
  15              		.section	.text.prvGetNextExpireTime,"ax",%progbits
  16              		.align	1
  17              		.arch armv7-m
  18              		.syntax unified
  19              		.thumb
  20              		.thumb_func
  21              		.fpu softvfp
  23              	prvGetNextExpireTime:
  24              	.LVL0:
  25              	.LFB16:
  26              		.file 1 "Middlewares/Third_Party/FreeRTOS/Source/timers.c"
   1:Middlewares/Third_Party/FreeRTOS/Source/timers.c **** /*
   2:Middlewares/Third_Party/FreeRTOS/Source/timers.c ****  * FreeRTOS Kernel V10.0.1
   3:Middlewares/Third_Party/FreeRTOS/Source/timers.c ****  * Copyright (C) 2017 Amazon.com, Inc. or its affiliates.  All Rights Reserved.
   4:Middlewares/Third_Party/FreeRTOS/Source/timers.c ****  *
   5:Middlewares/Third_Party/FreeRTOS/Source/timers.c ****  * Permission is hereby granted, free of charge, to any person obtaining a copy of
   6:Middlewares/Third_Party/FreeRTOS/Source/timers.c ****  * this software and associated documentation files (the "Software"), to deal in
   7:Middlewares/Third_Party/FreeRTOS/Source/timers.c ****  * the Software without restriction, including without limitation the rights to
   8:Middlewares/Third_Party/FreeRTOS/Source/timers.c ****  * use, copy, modify, merge, publish, distribute, sublicense, and/or sell copies of
   9:Middlewares/Third_Party/FreeRTOS/Source/timers.c ****  * the Software, and to permit persons to whom the Software is furnished to do so,
  10:Middlewares/Third_Party/FreeRTOS/Source/timers.c ****  * subject to the following conditions:
  11:Middlewares/Third_Party/FreeRTOS/Source/timers.c ****  *
  12:Middlewares/Third_Party/FreeRTOS/Source/timers.c ****  * The above copyright notice and this permission notice shall be included in all
  13:Middlewares/Third_Party/FreeRTOS/Source/timers.c ****  * copies or substantial portions of the Software.
  14:Middlewares/Third_Party/FreeRTOS/Source/timers.c ****  *
  15:Middlewares/Third_Party/FreeRTOS/Source/timers.c ****  * THE SOFTWARE IS PROVIDED "AS IS", WITHOUT WARRANTY OF ANY KIND, EXPRESS OR
  16:Middlewares/Third_Party/FreeRTOS/Source/timers.c ****  * IMPLIED, INCLUDING BUT NOT LIMITED TO THE WARRANTIES OF MERCHANTABILITY, FITNESS
  17:Middlewares/Third_Party/FreeRTOS/Source/timers.c ****  * FOR A PARTICULAR PURPOSE AND NONINFRINGEMENT. IN NO EVENT SHALL THE AUTHORS OR
  18:Middlewares/Third_Party/FreeRTOS/Source/timers.c ****  * COPYRIGHT HOLDERS BE LIABLE FOR ANY CLAIM, DAMAGES OR OTHER LIABILITY, WHETHER
  19:Middlewares/Third_Party/FreeRTOS/Source/timers.c ****  * IN AN ACTION OF CONTRACT, TORT OR OTHERWISE, ARISING FROM, OUT OF OR IN
  20:Middlewares/Third_Party/FreeRTOS/Source/timers.c ****  * CONNECTION WITH THE SOFTWARE OR THE USE OR OTHER DEALINGS IN THE SOFTWARE.
  21:Middlewares/Third_Party/FreeRTOS/Source/timers.c ****  *
  22:Middlewares/Third_Party/FreeRTOS/Source/timers.c ****  * http://www.FreeRTOS.org
  23:Middlewares/Third_Party/FreeRTOS/Source/timers.c ****  * http://aws.amazon.com/freertos
  24:Middlewares/Third_Party/FreeRTOS/Source/timers.c ****  *
  25:Middlewares/Third_Party/FreeRTOS/Source/timers.c ****  * 1 tab == 4 spaces!
  26:Middlewares/Third_Party/FreeRTOS/Source/timers.c ****  */
  27:Middlewares/Third_Party/FreeRTOS/Source/timers.c **** 
  28:Middlewares/Third_Party/FreeRTOS/Source/timers.c **** /* Standard includes. */
  29:Middlewares/Third_Party/FreeRTOS/Source/timers.c **** #include <stdlib.h>
  30:Middlewares/Third_Party/FreeRTOS/Source/timers.c **** 
  31:Middlewares/Third_Party/FreeRTOS/Source/timers.c **** /* Defining MPU_WRAPPERS_INCLUDED_FROM_API_FILE prevents task.h from redefining
  32:Middlewares/Third_Party/FreeRTOS/Source/timers.c **** all the API functions to use the MPU wrappers.  That should only be done when
ARM GAS  C:\Users\randommm\AppData\Local\Temp\ccIzDNWf.s 			page 2


  33:Middlewares/Third_Party/FreeRTOS/Source/timers.c **** task.h is included from an application file. */
  34:Middlewares/Third_Party/FreeRTOS/Source/timers.c **** #define MPU_WRAPPERS_INCLUDED_FROM_API_FILE
  35:Middlewares/Third_Party/FreeRTOS/Source/timers.c **** 
  36:Middlewares/Third_Party/FreeRTOS/Source/timers.c **** #include "FreeRTOS.h"
  37:Middlewares/Third_Party/FreeRTOS/Source/timers.c **** #include "task.h"
  38:Middlewares/Third_Party/FreeRTOS/Source/timers.c **** #include "queue.h"
  39:Middlewares/Third_Party/FreeRTOS/Source/timers.c **** #include "timers.h"
  40:Middlewares/Third_Party/FreeRTOS/Source/timers.c **** 
  41:Middlewares/Third_Party/FreeRTOS/Source/timers.c **** #if ( INCLUDE_xTimerPendFunctionCall == 1 ) && ( configUSE_TIMERS == 0 )
  42:Middlewares/Third_Party/FreeRTOS/Source/timers.c **** 	#error configUSE_TIMERS must be set to 1 to make the xTimerPendFunctionCall() function available.
  43:Middlewares/Third_Party/FreeRTOS/Source/timers.c **** #endif
  44:Middlewares/Third_Party/FreeRTOS/Source/timers.c **** 
  45:Middlewares/Third_Party/FreeRTOS/Source/timers.c **** /* Lint e961 and e750 are suppressed as a MISRA exception justified because the
  46:Middlewares/Third_Party/FreeRTOS/Source/timers.c **** MPU ports require MPU_WRAPPERS_INCLUDED_FROM_API_FILE to be defined for the
  47:Middlewares/Third_Party/FreeRTOS/Source/timers.c **** header files above, but not in this file, in order to generate the correct
  48:Middlewares/Third_Party/FreeRTOS/Source/timers.c **** privileged Vs unprivileged linkage and placement. */
  49:Middlewares/Third_Party/FreeRTOS/Source/timers.c **** #undef MPU_WRAPPERS_INCLUDED_FROM_API_FILE /*lint !e961 !e750. */
  50:Middlewares/Third_Party/FreeRTOS/Source/timers.c **** 
  51:Middlewares/Third_Party/FreeRTOS/Source/timers.c **** 
  52:Middlewares/Third_Party/FreeRTOS/Source/timers.c **** /* This entire source file will be skipped if the application is not configured
  53:Middlewares/Third_Party/FreeRTOS/Source/timers.c **** to include software timer functionality.  This #if is closed at the very bottom
  54:Middlewares/Third_Party/FreeRTOS/Source/timers.c **** of this file.  If you want to include software timer functionality then ensure
  55:Middlewares/Third_Party/FreeRTOS/Source/timers.c **** configUSE_TIMERS is set to 1 in FreeRTOSConfig.h. */
  56:Middlewares/Third_Party/FreeRTOS/Source/timers.c **** #if ( configUSE_TIMERS == 1 )
  57:Middlewares/Third_Party/FreeRTOS/Source/timers.c **** 
  58:Middlewares/Third_Party/FreeRTOS/Source/timers.c **** /* Misc definitions. */
  59:Middlewares/Third_Party/FreeRTOS/Source/timers.c **** #define tmrNO_DELAY		( TickType_t ) 0U
  60:Middlewares/Third_Party/FreeRTOS/Source/timers.c **** 
  61:Middlewares/Third_Party/FreeRTOS/Source/timers.c **** /* The name assigned to the timer service task.  This can be overridden by
  62:Middlewares/Third_Party/FreeRTOS/Source/timers.c **** defining trmTIMER_SERVICE_TASK_NAME in FreeRTOSConfig.h. */
  63:Middlewares/Third_Party/FreeRTOS/Source/timers.c **** #ifndef configTIMER_SERVICE_TASK_NAME
  64:Middlewares/Third_Party/FreeRTOS/Source/timers.c **** 	#define configTIMER_SERVICE_TASK_NAME "Tmr Svc"
  65:Middlewares/Third_Party/FreeRTOS/Source/timers.c **** #endif
  66:Middlewares/Third_Party/FreeRTOS/Source/timers.c **** 
  67:Middlewares/Third_Party/FreeRTOS/Source/timers.c **** /* The definition of the timers themselves. */
  68:Middlewares/Third_Party/FreeRTOS/Source/timers.c **** typedef struct tmrTimerControl
  69:Middlewares/Third_Party/FreeRTOS/Source/timers.c **** {
  70:Middlewares/Third_Party/FreeRTOS/Source/timers.c **** 	const char				*pcTimerName;		/*<< Text name.  This is not used by the kernel, it is included simpl
  71:Middlewares/Third_Party/FreeRTOS/Source/timers.c **** 	ListItem_t				xTimerListItem;		/*<< Standard linked list item as used by all kernel features for e
  72:Middlewares/Third_Party/FreeRTOS/Source/timers.c **** 	TickType_t				xTimerPeriodInTicks;/*<< How quickly and often the timer expires. */
  73:Middlewares/Third_Party/FreeRTOS/Source/timers.c **** 	UBaseType_t				uxAutoReload;		/*<< Set to pdTRUE if the timer should be automatically restarted on
  74:Middlewares/Third_Party/FreeRTOS/Source/timers.c **** 	void 					*pvTimerID;			/*<< An ID to identify the timer.  This allows the timer to be identified 
  75:Middlewares/Third_Party/FreeRTOS/Source/timers.c **** 	TimerCallbackFunction_t	pxCallbackFunction;	/*<< The function that will be called when the timer e
  76:Middlewares/Third_Party/FreeRTOS/Source/timers.c **** 	#if( configUSE_TRACE_FACILITY == 1 )
  77:Middlewares/Third_Party/FreeRTOS/Source/timers.c **** 		UBaseType_t			uxTimerNumber;		/*<< An ID assigned by trace tools such as FreeRTOS+Trace */
  78:Middlewares/Third_Party/FreeRTOS/Source/timers.c **** 	#endif
  79:Middlewares/Third_Party/FreeRTOS/Source/timers.c **** 
  80:Middlewares/Third_Party/FreeRTOS/Source/timers.c **** 	#if( ( configSUPPORT_STATIC_ALLOCATION == 1 ) && ( configSUPPORT_DYNAMIC_ALLOCATION == 1 ) )
  81:Middlewares/Third_Party/FreeRTOS/Source/timers.c **** 		uint8_t 			ucStaticallyAllocated; /*<< Set to pdTRUE if the timer was created statically so no at
  82:Middlewares/Third_Party/FreeRTOS/Source/timers.c **** 	#endif
  83:Middlewares/Third_Party/FreeRTOS/Source/timers.c **** } xTIMER;
  84:Middlewares/Third_Party/FreeRTOS/Source/timers.c **** 
  85:Middlewares/Third_Party/FreeRTOS/Source/timers.c **** /* The old xTIMER name is maintained above then typedefed to the new Timer_t
  86:Middlewares/Third_Party/FreeRTOS/Source/timers.c **** name below to enable the use of older kernel aware debuggers. */
  87:Middlewares/Third_Party/FreeRTOS/Source/timers.c **** typedef xTIMER Timer_t;
  88:Middlewares/Third_Party/FreeRTOS/Source/timers.c **** 
  89:Middlewares/Third_Party/FreeRTOS/Source/timers.c **** /* The definition of messages that can be sent and received on the timer queue.
ARM GAS  C:\Users\randommm\AppData\Local\Temp\ccIzDNWf.s 			page 3


  90:Middlewares/Third_Party/FreeRTOS/Source/timers.c **** Two types of message can be queued - messages that manipulate a software timer,
  91:Middlewares/Third_Party/FreeRTOS/Source/timers.c **** and messages that request the execution of a non-timer related callback.  The
  92:Middlewares/Third_Party/FreeRTOS/Source/timers.c **** two message types are defined in two separate structures, xTimerParametersType
  93:Middlewares/Third_Party/FreeRTOS/Source/timers.c **** and xCallbackParametersType respectively. */
  94:Middlewares/Third_Party/FreeRTOS/Source/timers.c **** typedef struct tmrTimerParameters
  95:Middlewares/Third_Party/FreeRTOS/Source/timers.c **** {
  96:Middlewares/Third_Party/FreeRTOS/Source/timers.c **** 	TickType_t			xMessageValue;		/*<< An optional value used by a subset of commands, for example, whe
  97:Middlewares/Third_Party/FreeRTOS/Source/timers.c **** 	Timer_t *			pxTimer;			/*<< The timer to which the command will be applied. */
  98:Middlewares/Third_Party/FreeRTOS/Source/timers.c **** } TimerParameter_t;
  99:Middlewares/Third_Party/FreeRTOS/Source/timers.c **** 
 100:Middlewares/Third_Party/FreeRTOS/Source/timers.c **** 
 101:Middlewares/Third_Party/FreeRTOS/Source/timers.c **** typedef struct tmrCallbackParameters
 102:Middlewares/Third_Party/FreeRTOS/Source/timers.c **** {
 103:Middlewares/Third_Party/FreeRTOS/Source/timers.c **** 	PendedFunction_t	pxCallbackFunction;	/* << The callback function to execute. */
 104:Middlewares/Third_Party/FreeRTOS/Source/timers.c **** 	void *pvParameter1;						/* << The value that will be used as the callback functions first paramet
 105:Middlewares/Third_Party/FreeRTOS/Source/timers.c **** 	uint32_t ulParameter2;					/* << The value that will be used as the callback functions second para
 106:Middlewares/Third_Party/FreeRTOS/Source/timers.c **** } CallbackParameters_t;
 107:Middlewares/Third_Party/FreeRTOS/Source/timers.c **** 
 108:Middlewares/Third_Party/FreeRTOS/Source/timers.c **** /* The structure that contains the two message types, along with an identifier
 109:Middlewares/Third_Party/FreeRTOS/Source/timers.c **** that is used to determine which message type is valid. */
 110:Middlewares/Third_Party/FreeRTOS/Source/timers.c **** typedef struct tmrTimerQueueMessage
 111:Middlewares/Third_Party/FreeRTOS/Source/timers.c **** {
 112:Middlewares/Third_Party/FreeRTOS/Source/timers.c **** 	BaseType_t			xMessageID;			/*<< The command being sent to the timer service task. */
 113:Middlewares/Third_Party/FreeRTOS/Source/timers.c **** 	union
 114:Middlewares/Third_Party/FreeRTOS/Source/timers.c **** 	{
 115:Middlewares/Third_Party/FreeRTOS/Source/timers.c **** 		TimerParameter_t xTimerParameters;
 116:Middlewares/Third_Party/FreeRTOS/Source/timers.c **** 
 117:Middlewares/Third_Party/FreeRTOS/Source/timers.c **** 		/* Don't include xCallbackParameters if it is not going to be used as
 118:Middlewares/Third_Party/FreeRTOS/Source/timers.c **** 		it makes the structure (and therefore the timer queue) larger. */
 119:Middlewares/Third_Party/FreeRTOS/Source/timers.c **** 		#if ( INCLUDE_xTimerPendFunctionCall == 1 )
 120:Middlewares/Third_Party/FreeRTOS/Source/timers.c **** 			CallbackParameters_t xCallbackParameters;
 121:Middlewares/Third_Party/FreeRTOS/Source/timers.c **** 		#endif /* INCLUDE_xTimerPendFunctionCall */
 122:Middlewares/Third_Party/FreeRTOS/Source/timers.c **** 	} u;
 123:Middlewares/Third_Party/FreeRTOS/Source/timers.c **** } DaemonTaskMessage_t;
 124:Middlewares/Third_Party/FreeRTOS/Source/timers.c **** 
 125:Middlewares/Third_Party/FreeRTOS/Source/timers.c **** /*lint -save -e956 A manual analysis and inspection has been used to determine
 126:Middlewares/Third_Party/FreeRTOS/Source/timers.c **** which static variables must be declared volatile. */
 127:Middlewares/Third_Party/FreeRTOS/Source/timers.c **** 
 128:Middlewares/Third_Party/FreeRTOS/Source/timers.c **** /* The list in which active timers are stored.  Timers are referenced in expire
 129:Middlewares/Third_Party/FreeRTOS/Source/timers.c **** time order, with the nearest expiry time at the front of the list.  Only the
 130:Middlewares/Third_Party/FreeRTOS/Source/timers.c **** timer service task is allowed to access these lists. */
 131:Middlewares/Third_Party/FreeRTOS/Source/timers.c **** PRIVILEGED_DATA static List_t xActiveTimerList1 = {0};
 132:Middlewares/Third_Party/FreeRTOS/Source/timers.c **** PRIVILEGED_DATA static List_t xActiveTimerList2 = {0};
 133:Middlewares/Third_Party/FreeRTOS/Source/timers.c **** PRIVILEGED_DATA static List_t *pxCurrentTimerList = NULL;
 134:Middlewares/Third_Party/FreeRTOS/Source/timers.c **** PRIVILEGED_DATA static List_t *pxOverflowTimerList = NULL;
 135:Middlewares/Third_Party/FreeRTOS/Source/timers.c **** 
 136:Middlewares/Third_Party/FreeRTOS/Source/timers.c **** /* A queue that is used to send commands to the timer service task. */
 137:Middlewares/Third_Party/FreeRTOS/Source/timers.c **** PRIVILEGED_DATA static QueueHandle_t xTimerQueue = NULL;
 138:Middlewares/Third_Party/FreeRTOS/Source/timers.c **** PRIVILEGED_DATA static TaskHandle_t xTimerTaskHandle = NULL;
 139:Middlewares/Third_Party/FreeRTOS/Source/timers.c **** 
 140:Middlewares/Third_Party/FreeRTOS/Source/timers.c **** /*lint -restore */
 141:Middlewares/Third_Party/FreeRTOS/Source/timers.c **** 
 142:Middlewares/Third_Party/FreeRTOS/Source/timers.c **** /*-----------------------------------------------------------*/
 143:Middlewares/Third_Party/FreeRTOS/Source/timers.c **** 
 144:Middlewares/Third_Party/FreeRTOS/Source/timers.c **** #if( configSUPPORT_STATIC_ALLOCATION == 1 )
 145:Middlewares/Third_Party/FreeRTOS/Source/timers.c **** 
 146:Middlewares/Third_Party/FreeRTOS/Source/timers.c **** 	/* If static allocation is supported then the application must provide the
ARM GAS  C:\Users\randommm\AppData\Local\Temp\ccIzDNWf.s 			page 4


 147:Middlewares/Third_Party/FreeRTOS/Source/timers.c **** 	following callback function - which enables the application to optionally
 148:Middlewares/Third_Party/FreeRTOS/Source/timers.c **** 	provide the memory that will be used by the timer task as the task's stack
 149:Middlewares/Third_Party/FreeRTOS/Source/timers.c **** 	and TCB. */
 150:Middlewares/Third_Party/FreeRTOS/Source/timers.c **** 	extern void vApplicationGetTimerTaskMemory( StaticTask_t **ppxTimerTaskTCBBuffer, StackType_t **pp
 151:Middlewares/Third_Party/FreeRTOS/Source/timers.c **** 
 152:Middlewares/Third_Party/FreeRTOS/Source/timers.c **** #endif
 153:Middlewares/Third_Party/FreeRTOS/Source/timers.c **** 
 154:Middlewares/Third_Party/FreeRTOS/Source/timers.c **** /*
 155:Middlewares/Third_Party/FreeRTOS/Source/timers.c ****  * Initialise the infrastructure used by the timer service task if it has not
 156:Middlewares/Third_Party/FreeRTOS/Source/timers.c ****  * been initialised already.
 157:Middlewares/Third_Party/FreeRTOS/Source/timers.c ****  */
 158:Middlewares/Third_Party/FreeRTOS/Source/timers.c **** static void prvCheckForValidListAndQueue( void ) PRIVILEGED_FUNCTION;
 159:Middlewares/Third_Party/FreeRTOS/Source/timers.c **** 
 160:Middlewares/Third_Party/FreeRTOS/Source/timers.c **** /*
 161:Middlewares/Third_Party/FreeRTOS/Source/timers.c ****  * The timer service task (daemon).  Timer functionality is controlled by this
 162:Middlewares/Third_Party/FreeRTOS/Source/timers.c ****  * task.  Other tasks communicate with the timer service task using the
 163:Middlewares/Third_Party/FreeRTOS/Source/timers.c ****  * xTimerQueue queue.
 164:Middlewares/Third_Party/FreeRTOS/Source/timers.c ****  */
 165:Middlewares/Third_Party/FreeRTOS/Source/timers.c **** static void prvTimerTask( void *pvParameters ) PRIVILEGED_FUNCTION;
 166:Middlewares/Third_Party/FreeRTOS/Source/timers.c **** 
 167:Middlewares/Third_Party/FreeRTOS/Source/timers.c **** /*
 168:Middlewares/Third_Party/FreeRTOS/Source/timers.c ****  * Called by the timer service task to interpret and process a command it
 169:Middlewares/Third_Party/FreeRTOS/Source/timers.c ****  * received on the timer queue.
 170:Middlewares/Third_Party/FreeRTOS/Source/timers.c ****  */
 171:Middlewares/Third_Party/FreeRTOS/Source/timers.c **** static void prvProcessReceivedCommands( void ) PRIVILEGED_FUNCTION;
 172:Middlewares/Third_Party/FreeRTOS/Source/timers.c **** 
 173:Middlewares/Third_Party/FreeRTOS/Source/timers.c **** /*
 174:Middlewares/Third_Party/FreeRTOS/Source/timers.c ****  * Insert the timer into either xActiveTimerList1, or xActiveTimerList2,
 175:Middlewares/Third_Party/FreeRTOS/Source/timers.c ****  * depending on if the expire time causes a timer counter overflow.
 176:Middlewares/Third_Party/FreeRTOS/Source/timers.c ****  */
 177:Middlewares/Third_Party/FreeRTOS/Source/timers.c **** static BaseType_t prvInsertTimerInActiveList( Timer_t * const pxTimer, const TickType_t xNextExpiry
 178:Middlewares/Third_Party/FreeRTOS/Source/timers.c **** 
 179:Middlewares/Third_Party/FreeRTOS/Source/timers.c **** /*
 180:Middlewares/Third_Party/FreeRTOS/Source/timers.c ****  * An active timer has reached its expire time.  Reload the timer if it is an
 181:Middlewares/Third_Party/FreeRTOS/Source/timers.c ****  * auto reload timer, then call its callback.
 182:Middlewares/Third_Party/FreeRTOS/Source/timers.c ****  */
 183:Middlewares/Third_Party/FreeRTOS/Source/timers.c **** static void prvProcessExpiredTimer( const TickType_t xNextExpireTime, const TickType_t xTimeNow ) P
 184:Middlewares/Third_Party/FreeRTOS/Source/timers.c **** 
 185:Middlewares/Third_Party/FreeRTOS/Source/timers.c **** /*
 186:Middlewares/Third_Party/FreeRTOS/Source/timers.c ****  * The tick count has overflowed.  Switch the timer lists after ensuring the
 187:Middlewares/Third_Party/FreeRTOS/Source/timers.c ****  * current timer list does not still reference some timers.
 188:Middlewares/Third_Party/FreeRTOS/Source/timers.c ****  */
 189:Middlewares/Third_Party/FreeRTOS/Source/timers.c **** static void prvSwitchTimerLists( void ) PRIVILEGED_FUNCTION;
 190:Middlewares/Third_Party/FreeRTOS/Source/timers.c **** 
 191:Middlewares/Third_Party/FreeRTOS/Source/timers.c **** /*
 192:Middlewares/Third_Party/FreeRTOS/Source/timers.c ****  * Obtain the current tick count, setting *pxTimerListsWereSwitched to pdTRUE
 193:Middlewares/Third_Party/FreeRTOS/Source/timers.c ****  * if a tick count overflow occurred since prvSampleTimeNow() was last called.
 194:Middlewares/Third_Party/FreeRTOS/Source/timers.c ****  */
 195:Middlewares/Third_Party/FreeRTOS/Source/timers.c **** static TickType_t prvSampleTimeNow( BaseType_t * const pxTimerListsWereSwitched ) PRIVILEGED_FUNCTI
 196:Middlewares/Third_Party/FreeRTOS/Source/timers.c **** 
 197:Middlewares/Third_Party/FreeRTOS/Source/timers.c **** /*
 198:Middlewares/Third_Party/FreeRTOS/Source/timers.c ****  * If the timer list contains any active timers then return the expire time of
 199:Middlewares/Third_Party/FreeRTOS/Source/timers.c ****  * the timer that will expire first and set *pxListWasEmpty to false.  If the
 200:Middlewares/Third_Party/FreeRTOS/Source/timers.c ****  * timer list does not contain any timers then return 0 and set *pxListWasEmpty
 201:Middlewares/Third_Party/FreeRTOS/Source/timers.c ****  * to pdTRUE.
 202:Middlewares/Third_Party/FreeRTOS/Source/timers.c ****  */
 203:Middlewares/Third_Party/FreeRTOS/Source/timers.c **** static TickType_t prvGetNextExpireTime( BaseType_t * const pxListWasEmpty ) PRIVILEGED_FUNCTION;
ARM GAS  C:\Users\randommm\AppData\Local\Temp\ccIzDNWf.s 			page 5


 204:Middlewares/Third_Party/FreeRTOS/Source/timers.c **** 
 205:Middlewares/Third_Party/FreeRTOS/Source/timers.c **** /*
 206:Middlewares/Third_Party/FreeRTOS/Source/timers.c ****  * If a timer has expired, process it.  Otherwise, block the timer service task
 207:Middlewares/Third_Party/FreeRTOS/Source/timers.c ****  * until either a timer does expire or a command is received.
 208:Middlewares/Third_Party/FreeRTOS/Source/timers.c ****  */
 209:Middlewares/Third_Party/FreeRTOS/Source/timers.c **** static void prvProcessTimerOrBlockTask( const TickType_t xNextExpireTime, BaseType_t xListWasEmpty 
 210:Middlewares/Third_Party/FreeRTOS/Source/timers.c **** 
 211:Middlewares/Third_Party/FreeRTOS/Source/timers.c **** /*
 212:Middlewares/Third_Party/FreeRTOS/Source/timers.c ****  * Called after a Timer_t structure has been allocated either statically or
 213:Middlewares/Third_Party/FreeRTOS/Source/timers.c ****  * dynamically to fill in the structure's members.
 214:Middlewares/Third_Party/FreeRTOS/Source/timers.c ****  */
 215:Middlewares/Third_Party/FreeRTOS/Source/timers.c **** static void prvInitialiseNewTimer(	const char * const pcTimerName,			/*lint !e971 Unqualified char 
 216:Middlewares/Third_Party/FreeRTOS/Source/timers.c **** 									const TickType_t xTimerPeriodInTicks,
 217:Middlewares/Third_Party/FreeRTOS/Source/timers.c **** 									const UBaseType_t uxAutoReload,
 218:Middlewares/Third_Party/FreeRTOS/Source/timers.c **** 									void * const pvTimerID,
 219:Middlewares/Third_Party/FreeRTOS/Source/timers.c **** 									TimerCallbackFunction_t pxCallbackFunction,
 220:Middlewares/Third_Party/FreeRTOS/Source/timers.c **** 									Timer_t *pxNewTimer ) PRIVILEGED_FUNCTION;
 221:Middlewares/Third_Party/FreeRTOS/Source/timers.c **** /*-----------------------------------------------------------*/
 222:Middlewares/Third_Party/FreeRTOS/Source/timers.c **** 
 223:Middlewares/Third_Party/FreeRTOS/Source/timers.c **** BaseType_t xTimerCreateTimerTask( void )
 224:Middlewares/Third_Party/FreeRTOS/Source/timers.c **** {
 225:Middlewares/Third_Party/FreeRTOS/Source/timers.c **** BaseType_t xReturn = pdFAIL;
 226:Middlewares/Third_Party/FreeRTOS/Source/timers.c **** 
 227:Middlewares/Third_Party/FreeRTOS/Source/timers.c **** 	/* This function is called when the scheduler is started if
 228:Middlewares/Third_Party/FreeRTOS/Source/timers.c **** 	configUSE_TIMERS is set to 1.  Check that the infrastructure used by the
 229:Middlewares/Third_Party/FreeRTOS/Source/timers.c **** 	timer service task has been created/initialised.  If timers have already
 230:Middlewares/Third_Party/FreeRTOS/Source/timers.c **** 	been created then the initialisation will already have been performed. */
 231:Middlewares/Third_Party/FreeRTOS/Source/timers.c **** 	prvCheckForValidListAndQueue();
 232:Middlewares/Third_Party/FreeRTOS/Source/timers.c **** 
 233:Middlewares/Third_Party/FreeRTOS/Source/timers.c **** 	if( xTimerQueue != NULL )
 234:Middlewares/Third_Party/FreeRTOS/Source/timers.c **** 	{
 235:Middlewares/Third_Party/FreeRTOS/Source/timers.c **** 		#if( configSUPPORT_STATIC_ALLOCATION == 1 )
 236:Middlewares/Third_Party/FreeRTOS/Source/timers.c **** 		{
 237:Middlewares/Third_Party/FreeRTOS/Source/timers.c **** 			StaticTask_t *pxTimerTaskTCBBuffer = NULL;
 238:Middlewares/Third_Party/FreeRTOS/Source/timers.c **** 			StackType_t *pxTimerTaskStackBuffer = NULL;
 239:Middlewares/Third_Party/FreeRTOS/Source/timers.c **** 			uint32_t ulTimerTaskStackSize;
 240:Middlewares/Third_Party/FreeRTOS/Source/timers.c **** 
 241:Middlewares/Third_Party/FreeRTOS/Source/timers.c **** 			vApplicationGetTimerTaskMemory( &pxTimerTaskTCBBuffer, &pxTimerTaskStackBuffer, &ulTimerTaskStac
 242:Middlewares/Third_Party/FreeRTOS/Source/timers.c **** 			xTimerTaskHandle = xTaskCreateStatic(	prvTimerTask,
 243:Middlewares/Third_Party/FreeRTOS/Source/timers.c **** 													configTIMER_SERVICE_TASK_NAME,
 244:Middlewares/Third_Party/FreeRTOS/Source/timers.c **** 													ulTimerTaskStackSize,
 245:Middlewares/Third_Party/FreeRTOS/Source/timers.c **** 													NULL,
 246:Middlewares/Third_Party/FreeRTOS/Source/timers.c **** 													( ( UBaseType_t ) configTIMER_TASK_PRIORITY ) | portPRIVILEGE_BIT,
 247:Middlewares/Third_Party/FreeRTOS/Source/timers.c **** 													pxTimerTaskStackBuffer,
 248:Middlewares/Third_Party/FreeRTOS/Source/timers.c **** 													pxTimerTaskTCBBuffer );
 249:Middlewares/Third_Party/FreeRTOS/Source/timers.c **** 
 250:Middlewares/Third_Party/FreeRTOS/Source/timers.c **** 			if( xTimerTaskHandle != NULL )
 251:Middlewares/Third_Party/FreeRTOS/Source/timers.c **** 			{
 252:Middlewares/Third_Party/FreeRTOS/Source/timers.c **** 				xReturn = pdPASS;
 253:Middlewares/Third_Party/FreeRTOS/Source/timers.c **** 			}
 254:Middlewares/Third_Party/FreeRTOS/Source/timers.c **** 		}
 255:Middlewares/Third_Party/FreeRTOS/Source/timers.c **** 		#else
 256:Middlewares/Third_Party/FreeRTOS/Source/timers.c **** 		{
 257:Middlewares/Third_Party/FreeRTOS/Source/timers.c **** 			xReturn = xTaskCreate(	prvTimerTask,
 258:Middlewares/Third_Party/FreeRTOS/Source/timers.c **** 									configTIMER_SERVICE_TASK_NAME,
 259:Middlewares/Third_Party/FreeRTOS/Source/timers.c **** 									configTIMER_TASK_STACK_DEPTH,
 260:Middlewares/Third_Party/FreeRTOS/Source/timers.c **** 									NULL,
ARM GAS  C:\Users\randommm\AppData\Local\Temp\ccIzDNWf.s 			page 6


 261:Middlewares/Third_Party/FreeRTOS/Source/timers.c **** 									( ( UBaseType_t ) configTIMER_TASK_PRIORITY ) | portPRIVILEGE_BIT,
 262:Middlewares/Third_Party/FreeRTOS/Source/timers.c **** 									&xTimerTaskHandle );
 263:Middlewares/Third_Party/FreeRTOS/Source/timers.c **** 		}
 264:Middlewares/Third_Party/FreeRTOS/Source/timers.c **** 		#endif /* configSUPPORT_STATIC_ALLOCATION */
 265:Middlewares/Third_Party/FreeRTOS/Source/timers.c **** 	}
 266:Middlewares/Third_Party/FreeRTOS/Source/timers.c **** 	else
 267:Middlewares/Third_Party/FreeRTOS/Source/timers.c **** 	{
 268:Middlewares/Third_Party/FreeRTOS/Source/timers.c **** 		mtCOVERAGE_TEST_MARKER();
 269:Middlewares/Third_Party/FreeRTOS/Source/timers.c **** 	}
 270:Middlewares/Third_Party/FreeRTOS/Source/timers.c **** 
 271:Middlewares/Third_Party/FreeRTOS/Source/timers.c **** 	configASSERT( xReturn );
 272:Middlewares/Third_Party/FreeRTOS/Source/timers.c **** 	return xReturn;
 273:Middlewares/Third_Party/FreeRTOS/Source/timers.c **** }
 274:Middlewares/Third_Party/FreeRTOS/Source/timers.c **** /*-----------------------------------------------------------*/
 275:Middlewares/Third_Party/FreeRTOS/Source/timers.c **** 
 276:Middlewares/Third_Party/FreeRTOS/Source/timers.c **** #if( configSUPPORT_DYNAMIC_ALLOCATION == 1 )
 277:Middlewares/Third_Party/FreeRTOS/Source/timers.c **** 
 278:Middlewares/Third_Party/FreeRTOS/Source/timers.c **** 	TimerHandle_t xTimerCreate(	const char * const pcTimerName,			/*lint !e971 Unqualified char types 
 279:Middlewares/Third_Party/FreeRTOS/Source/timers.c **** 								const TickType_t xTimerPeriodInTicks,
 280:Middlewares/Third_Party/FreeRTOS/Source/timers.c **** 								const UBaseType_t uxAutoReload,
 281:Middlewares/Third_Party/FreeRTOS/Source/timers.c **** 								void * const pvTimerID,
 282:Middlewares/Third_Party/FreeRTOS/Source/timers.c **** 								TimerCallbackFunction_t pxCallbackFunction )
 283:Middlewares/Third_Party/FreeRTOS/Source/timers.c **** 	{
 284:Middlewares/Third_Party/FreeRTOS/Source/timers.c **** 	Timer_t *pxNewTimer;
 285:Middlewares/Third_Party/FreeRTOS/Source/timers.c **** 
 286:Middlewares/Third_Party/FreeRTOS/Source/timers.c **** 		pxNewTimer = ( Timer_t * ) pvPortMalloc( sizeof( Timer_t ) );
 287:Middlewares/Third_Party/FreeRTOS/Source/timers.c **** 
 288:Middlewares/Third_Party/FreeRTOS/Source/timers.c **** 		if( pxNewTimer != NULL )
 289:Middlewares/Third_Party/FreeRTOS/Source/timers.c **** 		{
 290:Middlewares/Third_Party/FreeRTOS/Source/timers.c **** 			prvInitialiseNewTimer( pcTimerName, xTimerPeriodInTicks, uxAutoReload, pvTimerID, pxCallbackFunc
 291:Middlewares/Third_Party/FreeRTOS/Source/timers.c **** 
 292:Middlewares/Third_Party/FreeRTOS/Source/timers.c **** 			#if( configSUPPORT_STATIC_ALLOCATION == 1 )
 293:Middlewares/Third_Party/FreeRTOS/Source/timers.c **** 			{
 294:Middlewares/Third_Party/FreeRTOS/Source/timers.c **** 				/* Timers can be created statically or dynamically, so note this
 295:Middlewares/Third_Party/FreeRTOS/Source/timers.c **** 				timer was created dynamically in case the timer is later
 296:Middlewares/Third_Party/FreeRTOS/Source/timers.c **** 				deleted. */
 297:Middlewares/Third_Party/FreeRTOS/Source/timers.c **** 				pxNewTimer->ucStaticallyAllocated = pdFALSE;
 298:Middlewares/Third_Party/FreeRTOS/Source/timers.c **** 			}
 299:Middlewares/Third_Party/FreeRTOS/Source/timers.c **** 			#endif /* configSUPPORT_STATIC_ALLOCATION */
 300:Middlewares/Third_Party/FreeRTOS/Source/timers.c **** 		}
 301:Middlewares/Third_Party/FreeRTOS/Source/timers.c **** 
 302:Middlewares/Third_Party/FreeRTOS/Source/timers.c **** 		return pxNewTimer;
 303:Middlewares/Third_Party/FreeRTOS/Source/timers.c **** 	}
 304:Middlewares/Third_Party/FreeRTOS/Source/timers.c **** 
 305:Middlewares/Third_Party/FreeRTOS/Source/timers.c **** #endif /* configSUPPORT_STATIC_ALLOCATION */
 306:Middlewares/Third_Party/FreeRTOS/Source/timers.c **** /*-----------------------------------------------------------*/
 307:Middlewares/Third_Party/FreeRTOS/Source/timers.c **** 
 308:Middlewares/Third_Party/FreeRTOS/Source/timers.c **** #if( configSUPPORT_STATIC_ALLOCATION == 1 )
 309:Middlewares/Third_Party/FreeRTOS/Source/timers.c **** 
 310:Middlewares/Third_Party/FreeRTOS/Source/timers.c **** 	TimerHandle_t xTimerCreateStatic(	const char * const pcTimerName,		/*lint !e971 Unqualified char t
 311:Middlewares/Third_Party/FreeRTOS/Source/timers.c **** 										const TickType_t xTimerPeriodInTicks,
 312:Middlewares/Third_Party/FreeRTOS/Source/timers.c **** 										const UBaseType_t uxAutoReload,
 313:Middlewares/Third_Party/FreeRTOS/Source/timers.c **** 										void * const pvTimerID,
 314:Middlewares/Third_Party/FreeRTOS/Source/timers.c **** 										TimerCallbackFunction_t pxCallbackFunction,
 315:Middlewares/Third_Party/FreeRTOS/Source/timers.c **** 										StaticTimer_t *pxTimerBuffer )
 316:Middlewares/Third_Party/FreeRTOS/Source/timers.c **** 	{
 317:Middlewares/Third_Party/FreeRTOS/Source/timers.c **** 	Timer_t *pxNewTimer;
ARM GAS  C:\Users\randommm\AppData\Local\Temp\ccIzDNWf.s 			page 7


 318:Middlewares/Third_Party/FreeRTOS/Source/timers.c **** 
 319:Middlewares/Third_Party/FreeRTOS/Source/timers.c **** 		#if( configASSERT_DEFINED == 1 )
 320:Middlewares/Third_Party/FreeRTOS/Source/timers.c **** 		{
 321:Middlewares/Third_Party/FreeRTOS/Source/timers.c **** 			/* Sanity check that the size of the structure used to declare a
 322:Middlewares/Third_Party/FreeRTOS/Source/timers.c **** 			variable of type StaticTimer_t equals the size of the real timer
 323:Middlewares/Third_Party/FreeRTOS/Source/timers.c **** 			structure. */
 324:Middlewares/Third_Party/FreeRTOS/Source/timers.c **** 			volatile size_t xSize = sizeof( StaticTimer_t );
 325:Middlewares/Third_Party/FreeRTOS/Source/timers.c **** 			configASSERT( xSize == sizeof( Timer_t ) );
 326:Middlewares/Third_Party/FreeRTOS/Source/timers.c **** 		}
 327:Middlewares/Third_Party/FreeRTOS/Source/timers.c **** 		#endif /* configASSERT_DEFINED */
 328:Middlewares/Third_Party/FreeRTOS/Source/timers.c **** 
 329:Middlewares/Third_Party/FreeRTOS/Source/timers.c **** 		/* A pointer to a StaticTimer_t structure MUST be provided, use it. */
 330:Middlewares/Third_Party/FreeRTOS/Source/timers.c **** 		configASSERT( pxTimerBuffer );
 331:Middlewares/Third_Party/FreeRTOS/Source/timers.c **** 		pxNewTimer = ( Timer_t * ) pxTimerBuffer; /*lint !e740 Unusual cast is ok as the structures are d
 332:Middlewares/Third_Party/FreeRTOS/Source/timers.c **** 
 333:Middlewares/Third_Party/FreeRTOS/Source/timers.c **** 		if( pxNewTimer != NULL )
 334:Middlewares/Third_Party/FreeRTOS/Source/timers.c **** 		{
 335:Middlewares/Third_Party/FreeRTOS/Source/timers.c **** 			prvInitialiseNewTimer( pcTimerName, xTimerPeriodInTicks, uxAutoReload, pvTimerID, pxCallbackFunc
 336:Middlewares/Third_Party/FreeRTOS/Source/timers.c **** 
 337:Middlewares/Third_Party/FreeRTOS/Source/timers.c **** 			#if( configSUPPORT_DYNAMIC_ALLOCATION == 1 )
 338:Middlewares/Third_Party/FreeRTOS/Source/timers.c **** 			{
 339:Middlewares/Third_Party/FreeRTOS/Source/timers.c **** 				/* Timers can be created statically or dynamically so note this
 340:Middlewares/Third_Party/FreeRTOS/Source/timers.c **** 				timer was created statically in case it is later deleted. */
 341:Middlewares/Third_Party/FreeRTOS/Source/timers.c **** 				pxNewTimer->ucStaticallyAllocated = pdTRUE;
 342:Middlewares/Third_Party/FreeRTOS/Source/timers.c **** 			}
 343:Middlewares/Third_Party/FreeRTOS/Source/timers.c **** 			#endif /* configSUPPORT_DYNAMIC_ALLOCATION */
 344:Middlewares/Third_Party/FreeRTOS/Source/timers.c **** 		}
 345:Middlewares/Third_Party/FreeRTOS/Source/timers.c **** 
 346:Middlewares/Third_Party/FreeRTOS/Source/timers.c **** 		return pxNewTimer;
 347:Middlewares/Third_Party/FreeRTOS/Source/timers.c **** 	}
 348:Middlewares/Third_Party/FreeRTOS/Source/timers.c **** 
 349:Middlewares/Third_Party/FreeRTOS/Source/timers.c **** #endif /* configSUPPORT_STATIC_ALLOCATION */
 350:Middlewares/Third_Party/FreeRTOS/Source/timers.c **** /*-----------------------------------------------------------*/
 351:Middlewares/Third_Party/FreeRTOS/Source/timers.c **** 
 352:Middlewares/Third_Party/FreeRTOS/Source/timers.c **** static void prvInitialiseNewTimer(	const char * const pcTimerName,			/*lint !e971 Unqualified char 
 353:Middlewares/Third_Party/FreeRTOS/Source/timers.c **** 									const TickType_t xTimerPeriodInTicks,
 354:Middlewares/Third_Party/FreeRTOS/Source/timers.c **** 									const UBaseType_t uxAutoReload,
 355:Middlewares/Third_Party/FreeRTOS/Source/timers.c **** 									void * const pvTimerID,
 356:Middlewares/Third_Party/FreeRTOS/Source/timers.c **** 									TimerCallbackFunction_t pxCallbackFunction,
 357:Middlewares/Third_Party/FreeRTOS/Source/timers.c **** 									Timer_t *pxNewTimer )
 358:Middlewares/Third_Party/FreeRTOS/Source/timers.c **** {
 359:Middlewares/Third_Party/FreeRTOS/Source/timers.c **** 	/* 0 is not a valid value for xTimerPeriodInTicks. */
 360:Middlewares/Third_Party/FreeRTOS/Source/timers.c **** 	configASSERT( ( xTimerPeriodInTicks > 0 ) );
 361:Middlewares/Third_Party/FreeRTOS/Source/timers.c **** 
 362:Middlewares/Third_Party/FreeRTOS/Source/timers.c **** 	if( pxNewTimer != NULL )
 363:Middlewares/Third_Party/FreeRTOS/Source/timers.c **** 	{
 364:Middlewares/Third_Party/FreeRTOS/Source/timers.c **** 		/* Ensure the infrastructure used by the timer service task has been
 365:Middlewares/Third_Party/FreeRTOS/Source/timers.c **** 		created/initialised. */
 366:Middlewares/Third_Party/FreeRTOS/Source/timers.c **** 		prvCheckForValidListAndQueue();
 367:Middlewares/Third_Party/FreeRTOS/Source/timers.c **** 
 368:Middlewares/Third_Party/FreeRTOS/Source/timers.c **** 		/* Initialise the timer structure members using the function
 369:Middlewares/Third_Party/FreeRTOS/Source/timers.c **** 		parameters. */
 370:Middlewares/Third_Party/FreeRTOS/Source/timers.c **** 		pxNewTimer->pcTimerName = pcTimerName;
 371:Middlewares/Third_Party/FreeRTOS/Source/timers.c **** 		pxNewTimer->xTimerPeriodInTicks = xTimerPeriodInTicks;
 372:Middlewares/Third_Party/FreeRTOS/Source/timers.c **** 		pxNewTimer->uxAutoReload = uxAutoReload;
 373:Middlewares/Third_Party/FreeRTOS/Source/timers.c **** 		pxNewTimer->pvTimerID = pvTimerID;
 374:Middlewares/Third_Party/FreeRTOS/Source/timers.c **** 		pxNewTimer->pxCallbackFunction = pxCallbackFunction;
ARM GAS  C:\Users\randommm\AppData\Local\Temp\ccIzDNWf.s 			page 8


 375:Middlewares/Third_Party/FreeRTOS/Source/timers.c **** 		vListInitialiseItem( &( pxNewTimer->xTimerListItem ) );
 376:Middlewares/Third_Party/FreeRTOS/Source/timers.c **** 		traceTIMER_CREATE( pxNewTimer );
 377:Middlewares/Third_Party/FreeRTOS/Source/timers.c **** 	}
 378:Middlewares/Third_Party/FreeRTOS/Source/timers.c **** }
 379:Middlewares/Third_Party/FreeRTOS/Source/timers.c **** /*-----------------------------------------------------------*/
 380:Middlewares/Third_Party/FreeRTOS/Source/timers.c **** 
 381:Middlewares/Third_Party/FreeRTOS/Source/timers.c **** BaseType_t xTimerGenericCommand( TimerHandle_t xTimer, const BaseType_t xCommandID, const TickType_
 382:Middlewares/Third_Party/FreeRTOS/Source/timers.c **** {
 383:Middlewares/Third_Party/FreeRTOS/Source/timers.c **** BaseType_t xReturn = pdFAIL;
 384:Middlewares/Third_Party/FreeRTOS/Source/timers.c **** DaemonTaskMessage_t xMessage;
 385:Middlewares/Third_Party/FreeRTOS/Source/timers.c **** 
 386:Middlewares/Third_Party/FreeRTOS/Source/timers.c **** 	configASSERT( xTimer );
 387:Middlewares/Third_Party/FreeRTOS/Source/timers.c **** 
 388:Middlewares/Third_Party/FreeRTOS/Source/timers.c **** 	/* Send a message to the timer service task to perform a particular action
 389:Middlewares/Third_Party/FreeRTOS/Source/timers.c **** 	on a particular timer definition. */
 390:Middlewares/Third_Party/FreeRTOS/Source/timers.c **** 	if( xTimerQueue != NULL )
 391:Middlewares/Third_Party/FreeRTOS/Source/timers.c **** 	{
 392:Middlewares/Third_Party/FreeRTOS/Source/timers.c **** 		/* Send a command to the timer service task to start the xTimer timer. */
 393:Middlewares/Third_Party/FreeRTOS/Source/timers.c **** 		xMessage.xMessageID = xCommandID;
 394:Middlewares/Third_Party/FreeRTOS/Source/timers.c **** 		xMessage.u.xTimerParameters.xMessageValue = xOptionalValue;
 395:Middlewares/Third_Party/FreeRTOS/Source/timers.c **** 		xMessage.u.xTimerParameters.pxTimer = ( Timer_t * ) xTimer;
 396:Middlewares/Third_Party/FreeRTOS/Source/timers.c **** 
 397:Middlewares/Third_Party/FreeRTOS/Source/timers.c **** 		if( xCommandID < tmrFIRST_FROM_ISR_COMMAND )
 398:Middlewares/Third_Party/FreeRTOS/Source/timers.c **** 		{
 399:Middlewares/Third_Party/FreeRTOS/Source/timers.c **** 			if( xTaskGetSchedulerState() == taskSCHEDULER_RUNNING )
 400:Middlewares/Third_Party/FreeRTOS/Source/timers.c **** 			{
 401:Middlewares/Third_Party/FreeRTOS/Source/timers.c **** 				xReturn = xQueueSendToBack( xTimerQueue, &xMessage, xTicksToWait );
 402:Middlewares/Third_Party/FreeRTOS/Source/timers.c **** 			}
 403:Middlewares/Third_Party/FreeRTOS/Source/timers.c **** 			else
 404:Middlewares/Third_Party/FreeRTOS/Source/timers.c **** 			{
 405:Middlewares/Third_Party/FreeRTOS/Source/timers.c **** 				xReturn = xQueueSendToBack( xTimerQueue, &xMessage, tmrNO_DELAY );
 406:Middlewares/Third_Party/FreeRTOS/Source/timers.c **** 			}
 407:Middlewares/Third_Party/FreeRTOS/Source/timers.c **** 		}
 408:Middlewares/Third_Party/FreeRTOS/Source/timers.c **** 		else
 409:Middlewares/Third_Party/FreeRTOS/Source/timers.c **** 		{
 410:Middlewares/Third_Party/FreeRTOS/Source/timers.c **** 			xReturn = xQueueSendToBackFromISR( xTimerQueue, &xMessage, pxHigherPriorityTaskWoken );
 411:Middlewares/Third_Party/FreeRTOS/Source/timers.c **** 		}
 412:Middlewares/Third_Party/FreeRTOS/Source/timers.c **** 
 413:Middlewares/Third_Party/FreeRTOS/Source/timers.c **** 		traceTIMER_COMMAND_SEND( xTimer, xCommandID, xOptionalValue, xReturn );
 414:Middlewares/Third_Party/FreeRTOS/Source/timers.c **** 	}
 415:Middlewares/Third_Party/FreeRTOS/Source/timers.c **** 	else
 416:Middlewares/Third_Party/FreeRTOS/Source/timers.c **** 	{
 417:Middlewares/Third_Party/FreeRTOS/Source/timers.c **** 		mtCOVERAGE_TEST_MARKER();
 418:Middlewares/Third_Party/FreeRTOS/Source/timers.c **** 	}
 419:Middlewares/Third_Party/FreeRTOS/Source/timers.c **** 
 420:Middlewares/Third_Party/FreeRTOS/Source/timers.c **** 	return xReturn;
 421:Middlewares/Third_Party/FreeRTOS/Source/timers.c **** }
 422:Middlewares/Third_Party/FreeRTOS/Source/timers.c **** /*-----------------------------------------------------------*/
 423:Middlewares/Third_Party/FreeRTOS/Source/timers.c **** 
 424:Middlewares/Third_Party/FreeRTOS/Source/timers.c **** TaskHandle_t xTimerGetTimerDaemonTaskHandle( void )
 425:Middlewares/Third_Party/FreeRTOS/Source/timers.c **** {
 426:Middlewares/Third_Party/FreeRTOS/Source/timers.c **** 	/* If xTimerGetTimerDaemonTaskHandle() is called before the scheduler has been
 427:Middlewares/Third_Party/FreeRTOS/Source/timers.c **** 	started, then xTimerTaskHandle will be NULL. */
 428:Middlewares/Third_Party/FreeRTOS/Source/timers.c **** 	configASSERT( ( xTimerTaskHandle != NULL ) );
 429:Middlewares/Third_Party/FreeRTOS/Source/timers.c **** 	return xTimerTaskHandle;
 430:Middlewares/Third_Party/FreeRTOS/Source/timers.c **** }
 431:Middlewares/Third_Party/FreeRTOS/Source/timers.c **** /*-----------------------------------------------------------*/
ARM GAS  C:\Users\randommm\AppData\Local\Temp\ccIzDNWf.s 			page 9


 432:Middlewares/Third_Party/FreeRTOS/Source/timers.c **** 
 433:Middlewares/Third_Party/FreeRTOS/Source/timers.c **** TickType_t xTimerGetPeriod( TimerHandle_t xTimer )
 434:Middlewares/Third_Party/FreeRTOS/Source/timers.c **** {
 435:Middlewares/Third_Party/FreeRTOS/Source/timers.c **** Timer_t *pxTimer = ( Timer_t * ) xTimer;
 436:Middlewares/Third_Party/FreeRTOS/Source/timers.c **** 
 437:Middlewares/Third_Party/FreeRTOS/Source/timers.c **** 	configASSERT( xTimer );
 438:Middlewares/Third_Party/FreeRTOS/Source/timers.c **** 	return pxTimer->xTimerPeriodInTicks;
 439:Middlewares/Third_Party/FreeRTOS/Source/timers.c **** }
 440:Middlewares/Third_Party/FreeRTOS/Source/timers.c **** /*-----------------------------------------------------------*/
 441:Middlewares/Third_Party/FreeRTOS/Source/timers.c **** 
 442:Middlewares/Third_Party/FreeRTOS/Source/timers.c **** TickType_t xTimerGetExpiryTime( TimerHandle_t xTimer )
 443:Middlewares/Third_Party/FreeRTOS/Source/timers.c **** {
 444:Middlewares/Third_Party/FreeRTOS/Source/timers.c **** Timer_t * pxTimer = ( Timer_t * ) xTimer;
 445:Middlewares/Third_Party/FreeRTOS/Source/timers.c **** TickType_t xReturn;
 446:Middlewares/Third_Party/FreeRTOS/Source/timers.c **** 
 447:Middlewares/Third_Party/FreeRTOS/Source/timers.c **** 	configASSERT( xTimer );
 448:Middlewares/Third_Party/FreeRTOS/Source/timers.c **** 	xReturn = listGET_LIST_ITEM_VALUE( &( pxTimer->xTimerListItem ) );
 449:Middlewares/Third_Party/FreeRTOS/Source/timers.c **** 	return xReturn;
 450:Middlewares/Third_Party/FreeRTOS/Source/timers.c **** }
 451:Middlewares/Third_Party/FreeRTOS/Source/timers.c **** /*-----------------------------------------------------------*/
 452:Middlewares/Third_Party/FreeRTOS/Source/timers.c **** 
 453:Middlewares/Third_Party/FreeRTOS/Source/timers.c **** const char * pcTimerGetName( TimerHandle_t xTimer ) /*lint !e971 Unqualified char types are allowed
 454:Middlewares/Third_Party/FreeRTOS/Source/timers.c **** {
 455:Middlewares/Third_Party/FreeRTOS/Source/timers.c **** Timer_t *pxTimer = ( Timer_t * ) xTimer;
 456:Middlewares/Third_Party/FreeRTOS/Source/timers.c **** 
 457:Middlewares/Third_Party/FreeRTOS/Source/timers.c **** 	configASSERT( xTimer );
 458:Middlewares/Third_Party/FreeRTOS/Source/timers.c **** 	return pxTimer->pcTimerName;
 459:Middlewares/Third_Party/FreeRTOS/Source/timers.c **** }
 460:Middlewares/Third_Party/FreeRTOS/Source/timers.c **** /*-----------------------------------------------------------*/
 461:Middlewares/Third_Party/FreeRTOS/Source/timers.c **** 
 462:Middlewares/Third_Party/FreeRTOS/Source/timers.c **** static void prvProcessExpiredTimer( const TickType_t xNextExpireTime, const TickType_t xTimeNow )
 463:Middlewares/Third_Party/FreeRTOS/Source/timers.c **** {
 464:Middlewares/Third_Party/FreeRTOS/Source/timers.c **** BaseType_t xResult;
 465:Middlewares/Third_Party/FreeRTOS/Source/timers.c **** Timer_t * const pxTimer = ( Timer_t * ) listGET_OWNER_OF_HEAD_ENTRY( pxCurrentTimerList );
 466:Middlewares/Third_Party/FreeRTOS/Source/timers.c **** 
 467:Middlewares/Third_Party/FreeRTOS/Source/timers.c **** 	/* Remove the timer from the list of active timers.  A check has already
 468:Middlewares/Third_Party/FreeRTOS/Source/timers.c **** 	been performed to ensure the list is not empty. */
 469:Middlewares/Third_Party/FreeRTOS/Source/timers.c **** 	( void ) uxListRemove( &( pxTimer->xTimerListItem ) );
 470:Middlewares/Third_Party/FreeRTOS/Source/timers.c **** 	traceTIMER_EXPIRED( pxTimer );
 471:Middlewares/Third_Party/FreeRTOS/Source/timers.c **** 
 472:Middlewares/Third_Party/FreeRTOS/Source/timers.c **** 	/* If the timer is an auto reload timer then calculate the next
 473:Middlewares/Third_Party/FreeRTOS/Source/timers.c **** 	expiry time and re-insert the timer in the list of active timers. */
 474:Middlewares/Third_Party/FreeRTOS/Source/timers.c **** 	if( pxTimer->uxAutoReload == ( UBaseType_t ) pdTRUE )
 475:Middlewares/Third_Party/FreeRTOS/Source/timers.c **** 	{
 476:Middlewares/Third_Party/FreeRTOS/Source/timers.c **** 		/* The timer is inserted into a list using a time relative to anything
 477:Middlewares/Third_Party/FreeRTOS/Source/timers.c **** 		other than the current time.  It will therefore be inserted into the
 478:Middlewares/Third_Party/FreeRTOS/Source/timers.c **** 		correct list relative to the time this task thinks it is now. */
 479:Middlewares/Third_Party/FreeRTOS/Source/timers.c **** 		if( prvInsertTimerInActiveList( pxTimer, ( xNextExpireTime + pxTimer->xTimerPeriodInTicks ), xTim
 480:Middlewares/Third_Party/FreeRTOS/Source/timers.c **** 		{
 481:Middlewares/Third_Party/FreeRTOS/Source/timers.c **** 			/* The timer expired before it was added to the active timer
 482:Middlewares/Third_Party/FreeRTOS/Source/timers.c **** 			list.  Reload it now.  */
 483:Middlewares/Third_Party/FreeRTOS/Source/timers.c **** 			xResult = xTimerGenericCommand( pxTimer, tmrCOMMAND_START_DONT_TRACE, xNextExpireTime, NULL, tmr
 484:Middlewares/Third_Party/FreeRTOS/Source/timers.c **** 			configASSERT( xResult );
 485:Middlewares/Third_Party/FreeRTOS/Source/timers.c **** 			( void ) xResult;
 486:Middlewares/Third_Party/FreeRTOS/Source/timers.c **** 		}
 487:Middlewares/Third_Party/FreeRTOS/Source/timers.c **** 		else
 488:Middlewares/Third_Party/FreeRTOS/Source/timers.c **** 		{
ARM GAS  C:\Users\randommm\AppData\Local\Temp\ccIzDNWf.s 			page 10


 489:Middlewares/Third_Party/FreeRTOS/Source/timers.c **** 			mtCOVERAGE_TEST_MARKER();
 490:Middlewares/Third_Party/FreeRTOS/Source/timers.c **** 		}
 491:Middlewares/Third_Party/FreeRTOS/Source/timers.c **** 	}
 492:Middlewares/Third_Party/FreeRTOS/Source/timers.c **** 	else
 493:Middlewares/Third_Party/FreeRTOS/Source/timers.c **** 	{
 494:Middlewares/Third_Party/FreeRTOS/Source/timers.c **** 		mtCOVERAGE_TEST_MARKER();
 495:Middlewares/Third_Party/FreeRTOS/Source/timers.c **** 	}
 496:Middlewares/Third_Party/FreeRTOS/Source/timers.c **** 
 497:Middlewares/Third_Party/FreeRTOS/Source/timers.c **** 	/* Call the timer callback. */
 498:Middlewares/Third_Party/FreeRTOS/Source/timers.c **** 	pxTimer->pxCallbackFunction( ( TimerHandle_t ) pxTimer );
 499:Middlewares/Third_Party/FreeRTOS/Source/timers.c **** }
 500:Middlewares/Third_Party/FreeRTOS/Source/timers.c **** /*-----------------------------------------------------------*/
 501:Middlewares/Third_Party/FreeRTOS/Source/timers.c **** 
 502:Middlewares/Third_Party/FreeRTOS/Source/timers.c **** static void prvTimerTask( void *pvParameters )
 503:Middlewares/Third_Party/FreeRTOS/Source/timers.c **** {
 504:Middlewares/Third_Party/FreeRTOS/Source/timers.c **** TickType_t xNextExpireTime;
 505:Middlewares/Third_Party/FreeRTOS/Source/timers.c **** BaseType_t xListWasEmpty;
 506:Middlewares/Third_Party/FreeRTOS/Source/timers.c **** 
 507:Middlewares/Third_Party/FreeRTOS/Source/timers.c **** 	/* Just to avoid compiler warnings. */
 508:Middlewares/Third_Party/FreeRTOS/Source/timers.c **** 	( void ) pvParameters;
 509:Middlewares/Third_Party/FreeRTOS/Source/timers.c **** 
 510:Middlewares/Third_Party/FreeRTOS/Source/timers.c **** 	#if( configUSE_DAEMON_TASK_STARTUP_HOOK == 1 )
 511:Middlewares/Third_Party/FreeRTOS/Source/timers.c **** 	{
 512:Middlewares/Third_Party/FreeRTOS/Source/timers.c **** 		extern void vApplicationDaemonTaskStartupHook( void );
 513:Middlewares/Third_Party/FreeRTOS/Source/timers.c **** 
 514:Middlewares/Third_Party/FreeRTOS/Source/timers.c **** 		/* Allow the application writer to execute some code in the context of
 515:Middlewares/Third_Party/FreeRTOS/Source/timers.c **** 		this task at the point the task starts executing.  This is useful if the
 516:Middlewares/Third_Party/FreeRTOS/Source/timers.c **** 		application includes initialisation code that would benefit from
 517:Middlewares/Third_Party/FreeRTOS/Source/timers.c **** 		executing after the scheduler has been started. */
 518:Middlewares/Third_Party/FreeRTOS/Source/timers.c **** 		vApplicationDaemonTaskStartupHook();
 519:Middlewares/Third_Party/FreeRTOS/Source/timers.c **** 	}
 520:Middlewares/Third_Party/FreeRTOS/Source/timers.c **** 	#endif /* configUSE_DAEMON_TASK_STARTUP_HOOK */
 521:Middlewares/Third_Party/FreeRTOS/Source/timers.c **** 
 522:Middlewares/Third_Party/FreeRTOS/Source/timers.c **** 	for( ;; )
 523:Middlewares/Third_Party/FreeRTOS/Source/timers.c **** 	{
 524:Middlewares/Third_Party/FreeRTOS/Source/timers.c **** 		/* Query the timers list to see if it contains any timers, and if so,
 525:Middlewares/Third_Party/FreeRTOS/Source/timers.c **** 		obtain the time at which the next timer will expire. */
 526:Middlewares/Third_Party/FreeRTOS/Source/timers.c **** 		xNextExpireTime = prvGetNextExpireTime( &xListWasEmpty );
 527:Middlewares/Third_Party/FreeRTOS/Source/timers.c **** 
 528:Middlewares/Third_Party/FreeRTOS/Source/timers.c **** 		/* If a timer has expired, process it.  Otherwise, block this task
 529:Middlewares/Third_Party/FreeRTOS/Source/timers.c **** 		until either a timer does expire, or a command is received. */
 530:Middlewares/Third_Party/FreeRTOS/Source/timers.c **** 		prvProcessTimerOrBlockTask( xNextExpireTime, xListWasEmpty );
 531:Middlewares/Third_Party/FreeRTOS/Source/timers.c **** 
 532:Middlewares/Third_Party/FreeRTOS/Source/timers.c **** 		/* Empty the command queue. */
 533:Middlewares/Third_Party/FreeRTOS/Source/timers.c **** 		prvProcessReceivedCommands();
 534:Middlewares/Third_Party/FreeRTOS/Source/timers.c **** 	}
 535:Middlewares/Third_Party/FreeRTOS/Source/timers.c **** }
 536:Middlewares/Third_Party/FreeRTOS/Source/timers.c **** /*-----------------------------------------------------------*/
 537:Middlewares/Third_Party/FreeRTOS/Source/timers.c **** 
 538:Middlewares/Third_Party/FreeRTOS/Source/timers.c **** static void prvProcessTimerOrBlockTask( const TickType_t xNextExpireTime, BaseType_t xListWasEmpty 
 539:Middlewares/Third_Party/FreeRTOS/Source/timers.c **** {
 540:Middlewares/Third_Party/FreeRTOS/Source/timers.c **** TickType_t xTimeNow;
 541:Middlewares/Third_Party/FreeRTOS/Source/timers.c **** BaseType_t xTimerListsWereSwitched;
 542:Middlewares/Third_Party/FreeRTOS/Source/timers.c **** 
 543:Middlewares/Third_Party/FreeRTOS/Source/timers.c **** 	vTaskSuspendAll();
 544:Middlewares/Third_Party/FreeRTOS/Source/timers.c **** 	{
 545:Middlewares/Third_Party/FreeRTOS/Source/timers.c **** 		/* Obtain the time now to make an assessment as to whether the timer
ARM GAS  C:\Users\randommm\AppData\Local\Temp\ccIzDNWf.s 			page 11


 546:Middlewares/Third_Party/FreeRTOS/Source/timers.c **** 		has expired or not.  If obtaining the time causes the lists to switch
 547:Middlewares/Third_Party/FreeRTOS/Source/timers.c **** 		then don't process this timer as any timers that remained in the list
 548:Middlewares/Third_Party/FreeRTOS/Source/timers.c **** 		when the lists were switched will have been processed within the
 549:Middlewares/Third_Party/FreeRTOS/Source/timers.c **** 		prvSampleTimeNow() function. */
 550:Middlewares/Third_Party/FreeRTOS/Source/timers.c **** 		xTimeNow = prvSampleTimeNow( &xTimerListsWereSwitched );
 551:Middlewares/Third_Party/FreeRTOS/Source/timers.c **** 		if( xTimerListsWereSwitched == pdFALSE )
 552:Middlewares/Third_Party/FreeRTOS/Source/timers.c **** 		{
 553:Middlewares/Third_Party/FreeRTOS/Source/timers.c **** 			/* The tick count has not overflowed, has the timer expired? */
 554:Middlewares/Third_Party/FreeRTOS/Source/timers.c **** 			if( ( xListWasEmpty == pdFALSE ) && ( xNextExpireTime <= xTimeNow ) )
 555:Middlewares/Third_Party/FreeRTOS/Source/timers.c **** 			{
 556:Middlewares/Third_Party/FreeRTOS/Source/timers.c **** 				( void ) xTaskResumeAll();
 557:Middlewares/Third_Party/FreeRTOS/Source/timers.c **** 				prvProcessExpiredTimer( xNextExpireTime, xTimeNow );
 558:Middlewares/Third_Party/FreeRTOS/Source/timers.c **** 			}
 559:Middlewares/Third_Party/FreeRTOS/Source/timers.c **** 			else
 560:Middlewares/Third_Party/FreeRTOS/Source/timers.c **** 			{
 561:Middlewares/Third_Party/FreeRTOS/Source/timers.c **** 				/* The tick count has not overflowed, and the next expire
 562:Middlewares/Third_Party/FreeRTOS/Source/timers.c **** 				time has not been reached yet.  This task should therefore
 563:Middlewares/Third_Party/FreeRTOS/Source/timers.c **** 				block to wait for the next expire time or a command to be
 564:Middlewares/Third_Party/FreeRTOS/Source/timers.c **** 				received - whichever comes first.  The following line cannot
 565:Middlewares/Third_Party/FreeRTOS/Source/timers.c **** 				be reached unless xNextExpireTime > xTimeNow, except in the
 566:Middlewares/Third_Party/FreeRTOS/Source/timers.c **** 				case when the current timer list is empty. */
 567:Middlewares/Third_Party/FreeRTOS/Source/timers.c **** 				if( xListWasEmpty != pdFALSE )
 568:Middlewares/Third_Party/FreeRTOS/Source/timers.c **** 				{
 569:Middlewares/Third_Party/FreeRTOS/Source/timers.c **** 					/* The current timer list is empty - is the overflow list
 570:Middlewares/Third_Party/FreeRTOS/Source/timers.c **** 					also empty? */
 571:Middlewares/Third_Party/FreeRTOS/Source/timers.c **** 					xListWasEmpty = listLIST_IS_EMPTY( pxOverflowTimerList );
 572:Middlewares/Third_Party/FreeRTOS/Source/timers.c **** 				}
 573:Middlewares/Third_Party/FreeRTOS/Source/timers.c **** 
 574:Middlewares/Third_Party/FreeRTOS/Source/timers.c **** 				vQueueWaitForMessageRestricted( xTimerQueue, ( xNextExpireTime - xTimeNow ), xListWasEmpty );
 575:Middlewares/Third_Party/FreeRTOS/Source/timers.c **** 
 576:Middlewares/Third_Party/FreeRTOS/Source/timers.c **** 				if( xTaskResumeAll() == pdFALSE )
 577:Middlewares/Third_Party/FreeRTOS/Source/timers.c **** 				{
 578:Middlewares/Third_Party/FreeRTOS/Source/timers.c **** 					/* Yield to wait for either a command to arrive, or the
 579:Middlewares/Third_Party/FreeRTOS/Source/timers.c **** 					block time to expire.  If a command arrived between the
 580:Middlewares/Third_Party/FreeRTOS/Source/timers.c **** 					critical section being exited and this yield then the yield
 581:Middlewares/Third_Party/FreeRTOS/Source/timers.c **** 					will not cause the task to block. */
 582:Middlewares/Third_Party/FreeRTOS/Source/timers.c **** 					portYIELD_WITHIN_API();
 583:Middlewares/Third_Party/FreeRTOS/Source/timers.c **** 				}
 584:Middlewares/Third_Party/FreeRTOS/Source/timers.c **** 				else
 585:Middlewares/Third_Party/FreeRTOS/Source/timers.c **** 				{
 586:Middlewares/Third_Party/FreeRTOS/Source/timers.c **** 					mtCOVERAGE_TEST_MARKER();
 587:Middlewares/Third_Party/FreeRTOS/Source/timers.c **** 				}
 588:Middlewares/Third_Party/FreeRTOS/Source/timers.c **** 			}
 589:Middlewares/Third_Party/FreeRTOS/Source/timers.c **** 		}
 590:Middlewares/Third_Party/FreeRTOS/Source/timers.c **** 		else
 591:Middlewares/Third_Party/FreeRTOS/Source/timers.c **** 		{
 592:Middlewares/Third_Party/FreeRTOS/Source/timers.c **** 			( void ) xTaskResumeAll();
 593:Middlewares/Third_Party/FreeRTOS/Source/timers.c **** 		}
 594:Middlewares/Third_Party/FreeRTOS/Source/timers.c **** 	}
 595:Middlewares/Third_Party/FreeRTOS/Source/timers.c **** }
 596:Middlewares/Third_Party/FreeRTOS/Source/timers.c **** /*-----------------------------------------------------------*/
 597:Middlewares/Third_Party/FreeRTOS/Source/timers.c **** 
 598:Middlewares/Third_Party/FreeRTOS/Source/timers.c **** static TickType_t prvGetNextExpireTime( BaseType_t * const pxListWasEmpty )
 599:Middlewares/Third_Party/FreeRTOS/Source/timers.c **** {
  27              		.loc 1 599 1 view -0
  28              		.cfi_startproc
  29              		@ args = 0, pretend = 0, frame = 0
ARM GAS  C:\Users\randommm\AppData\Local\Temp\ccIzDNWf.s 			page 12


  30              		@ frame_needed = 0, uses_anonymous_args = 0
  31              		@ link register save eliminated.
 600:Middlewares/Third_Party/FreeRTOS/Source/timers.c **** TickType_t xNextExpireTime;
  32              		.loc 1 600 1 view .LVU1
 601:Middlewares/Third_Party/FreeRTOS/Source/timers.c **** 
 602:Middlewares/Third_Party/FreeRTOS/Source/timers.c **** 	/* Timers are listed in expiry time order, with the head of the list
 603:Middlewares/Third_Party/FreeRTOS/Source/timers.c **** 	referencing the task that will expire first.  Obtain the time at which
 604:Middlewares/Third_Party/FreeRTOS/Source/timers.c **** 	the timer with the nearest expiry time will expire.  If there are no
 605:Middlewares/Third_Party/FreeRTOS/Source/timers.c **** 	active timers then just set the next expire time to 0.  That will cause
 606:Middlewares/Third_Party/FreeRTOS/Source/timers.c **** 	this task to unblock when the tick count overflows, at which point the
 607:Middlewares/Third_Party/FreeRTOS/Source/timers.c **** 	timer lists will be switched and the next expiry time can be
 608:Middlewares/Third_Party/FreeRTOS/Source/timers.c **** 	re-assessed.  */
 609:Middlewares/Third_Party/FreeRTOS/Source/timers.c **** 	*pxListWasEmpty = listLIST_IS_EMPTY( pxCurrentTimerList );
  33              		.loc 1 609 2 view .LVU2
  34              		.loc 1 609 20 is_stmt 0 view .LVU3
  35 0000 064B     		ldr	r3, .L4
  36 0002 1A68     		ldr	r2, [r3]
  37 0004 1368     		ldr	r3, [r2]
  38 0006 B3FA83F3 		clz	r3, r3
  39 000a 5B09     		lsrs	r3, r3, #5
  40              		.loc 1 609 18 view .LVU4
  41 000c 0360     		str	r3, [r0]
 610:Middlewares/Third_Party/FreeRTOS/Source/timers.c **** 	if( *pxListWasEmpty == pdFALSE )
  42              		.loc 1 610 2 is_stmt 1 view .LVU5
  43              		.loc 1 610 4 is_stmt 0 view .LVU6
  44 000e 13B9     		cbnz	r3, .L3
 611:Middlewares/Third_Party/FreeRTOS/Source/timers.c **** 	{
 612:Middlewares/Third_Party/FreeRTOS/Source/timers.c **** 		xNextExpireTime = listGET_ITEM_VALUE_OF_HEAD_ENTRY( pxCurrentTimerList );
  45              		.loc 1 612 3 is_stmt 1 view .LVU7
  46              		.loc 1 612 21 is_stmt 0 view .LVU8
  47 0010 D368     		ldr	r3, [r2, #12]
  48              		.loc 1 612 19 view .LVU9
  49 0012 1868     		ldr	r0, [r3]
  50              	.LVL1:
  51              		.loc 1 612 19 view .LVU10
  52 0014 7047     		bx	lr
  53              	.LVL2:
  54              	.L3:
 613:Middlewares/Third_Party/FreeRTOS/Source/timers.c **** 	}
 614:Middlewares/Third_Party/FreeRTOS/Source/timers.c **** 	else
 615:Middlewares/Third_Party/FreeRTOS/Source/timers.c **** 	{
 616:Middlewares/Third_Party/FreeRTOS/Source/timers.c **** 		/* Ensure the task unblocks when the tick count rolls over. */
 617:Middlewares/Third_Party/FreeRTOS/Source/timers.c **** 		xNextExpireTime = ( TickType_t ) 0U;
  55              		.loc 1 617 19 view .LVU11
  56 0016 0020     		movs	r0, #0
  57              	.LVL3:
 618:Middlewares/Third_Party/FreeRTOS/Source/timers.c **** 	}
 619:Middlewares/Third_Party/FreeRTOS/Source/timers.c **** 
 620:Middlewares/Third_Party/FreeRTOS/Source/timers.c **** 	return xNextExpireTime;
  58              		.loc 1 620 2 is_stmt 1 view .LVU12
 621:Middlewares/Third_Party/FreeRTOS/Source/timers.c **** }
  59              		.loc 1 621 1 is_stmt 0 view .LVU13
  60 0018 7047     		bx	lr
  61              	.L5:
  62 001a 00BF     		.align	2
  63              	.L4:
  64 001c 00000000 		.word	.LANCHOR0
ARM GAS  C:\Users\randommm\AppData\Local\Temp\ccIzDNWf.s 			page 13


  65              		.cfi_endproc
  66              	.LFE16:
  68              		.section	.text.prvInsertTimerInActiveList,"ax",%progbits
  69              		.align	1
  70              		.syntax unified
  71              		.thumb
  72              		.thumb_func
  73              		.fpu softvfp
  75              	prvInsertTimerInActiveList:
  76              	.LVL4:
  77              	.LFB18:
 622:Middlewares/Third_Party/FreeRTOS/Source/timers.c **** /*-----------------------------------------------------------*/
 623:Middlewares/Third_Party/FreeRTOS/Source/timers.c **** 
 624:Middlewares/Third_Party/FreeRTOS/Source/timers.c **** static TickType_t prvSampleTimeNow( BaseType_t * const pxTimerListsWereSwitched )
 625:Middlewares/Third_Party/FreeRTOS/Source/timers.c **** {
 626:Middlewares/Third_Party/FreeRTOS/Source/timers.c **** TickType_t xTimeNow;
 627:Middlewares/Third_Party/FreeRTOS/Source/timers.c **** PRIVILEGED_DATA static TickType_t xLastTime = ( TickType_t ) 0U; /*lint !e956 Variable is only acce
 628:Middlewares/Third_Party/FreeRTOS/Source/timers.c **** 
 629:Middlewares/Third_Party/FreeRTOS/Source/timers.c **** 	xTimeNow = xTaskGetTickCount();
 630:Middlewares/Third_Party/FreeRTOS/Source/timers.c **** 
 631:Middlewares/Third_Party/FreeRTOS/Source/timers.c **** 	if( xTimeNow < xLastTime )
 632:Middlewares/Third_Party/FreeRTOS/Source/timers.c **** 	{
 633:Middlewares/Third_Party/FreeRTOS/Source/timers.c **** 		prvSwitchTimerLists();
 634:Middlewares/Third_Party/FreeRTOS/Source/timers.c **** 		*pxTimerListsWereSwitched = pdTRUE;
 635:Middlewares/Third_Party/FreeRTOS/Source/timers.c **** 	}
 636:Middlewares/Third_Party/FreeRTOS/Source/timers.c **** 	else
 637:Middlewares/Third_Party/FreeRTOS/Source/timers.c **** 	{
 638:Middlewares/Third_Party/FreeRTOS/Source/timers.c **** 		*pxTimerListsWereSwitched = pdFALSE;
 639:Middlewares/Third_Party/FreeRTOS/Source/timers.c **** 	}
 640:Middlewares/Third_Party/FreeRTOS/Source/timers.c **** 
 641:Middlewares/Third_Party/FreeRTOS/Source/timers.c **** 	xLastTime = xTimeNow;
 642:Middlewares/Third_Party/FreeRTOS/Source/timers.c **** 
 643:Middlewares/Third_Party/FreeRTOS/Source/timers.c **** 	return xTimeNow;
 644:Middlewares/Third_Party/FreeRTOS/Source/timers.c **** }
 645:Middlewares/Third_Party/FreeRTOS/Source/timers.c **** /*-----------------------------------------------------------*/
 646:Middlewares/Third_Party/FreeRTOS/Source/timers.c **** 
 647:Middlewares/Third_Party/FreeRTOS/Source/timers.c **** static BaseType_t prvInsertTimerInActiveList( Timer_t * const pxTimer, const TickType_t xNextExpiry
 648:Middlewares/Third_Party/FreeRTOS/Source/timers.c **** {
  78              		.loc 1 648 1 is_stmt 1 view -0
  79              		.cfi_startproc
  80              		@ args = 0, pretend = 0, frame = 0
  81              		@ frame_needed = 0, uses_anonymous_args = 0
  82              		.loc 1 648 1 is_stmt 0 view .LVU15
  83 0000 08B5     		push	{r3, lr}
  84              	.LCFI0:
  85              		.cfi_def_cfa_offset 8
  86              		.cfi_offset 3, -8
  87              		.cfi_offset 14, -4
 649:Middlewares/Third_Party/FreeRTOS/Source/timers.c **** BaseType_t xProcessTimerNow = pdFALSE;
  88              		.loc 1 649 1 is_stmt 1 view .LVU16
  89              	.LVL5:
 650:Middlewares/Third_Party/FreeRTOS/Source/timers.c **** 
 651:Middlewares/Third_Party/FreeRTOS/Source/timers.c **** 	listSET_LIST_ITEM_VALUE( &( pxTimer->xTimerListItem ), xNextExpiryTime );
  90              		.loc 1 651 2 view .LVU17
  91 0002 4160     		str	r1, [r0, #4]
 652:Middlewares/Third_Party/FreeRTOS/Source/timers.c **** 	listSET_LIST_ITEM_OWNER( &( pxTimer->xTimerListItem ), pxTimer );
  92              		.loc 1 652 2 view .LVU18
ARM GAS  C:\Users\randommm\AppData\Local\Temp\ccIzDNWf.s 			page 14


  93 0004 0061     		str	r0, [r0, #16]
 653:Middlewares/Third_Party/FreeRTOS/Source/timers.c **** 
 654:Middlewares/Third_Party/FreeRTOS/Source/timers.c **** 	if( xNextExpiryTime <= xTimeNow )
  94              		.loc 1 654 2 view .LVU19
  95              		.loc 1 654 4 is_stmt 0 view .LVU20
  96 0006 9142     		cmp	r1, r2
  97 0008 0CD8     		bhi	.L7
 655:Middlewares/Third_Party/FreeRTOS/Source/timers.c **** 	{
 656:Middlewares/Third_Party/FreeRTOS/Source/timers.c **** 		/* Has the expiry time elapsed between the command to start/reset a
 657:Middlewares/Third_Party/FreeRTOS/Source/timers.c **** 		timer was issued, and the time the command was processed? */
 658:Middlewares/Third_Party/FreeRTOS/Source/timers.c **** 		if( ( ( TickType_t ) ( xTimeNow - xCommandTime ) ) >= pxTimer->xTimerPeriodInTicks ) /*lint !e961
  98              		.loc 1 658 3 is_stmt 1 view .LVU21
  99              		.loc 1 658 9 is_stmt 0 view .LVU22
 100 000a D21A     		subs	r2, r2, r3
 101              	.LVL6:
 102              		.loc 1 658 64 view .LVU23
 103 000c 8369     		ldr	r3, [r0, #24]
 104              	.LVL7:
 105              		.loc 1 658 5 view .LVU24
 106 000e 9A42     		cmp	r2, r3
 107 0010 01D3     		bcc	.L13
 659:Middlewares/Third_Party/FreeRTOS/Source/timers.c **** 		{
 660:Middlewares/Third_Party/FreeRTOS/Source/timers.c **** 			/* The time between a command being issued and the command being
 661:Middlewares/Third_Party/FreeRTOS/Source/timers.c **** 			processed actually exceeds the timers period.  */
 662:Middlewares/Third_Party/FreeRTOS/Source/timers.c **** 			xProcessTimerNow = pdTRUE;
 108              		.loc 1 662 21 view .LVU25
 109 0012 0120     		movs	r0, #1
 110              	.LVL8:
 111              	.L6:
 663:Middlewares/Third_Party/FreeRTOS/Source/timers.c **** 		}
 664:Middlewares/Third_Party/FreeRTOS/Source/timers.c **** 		else
 665:Middlewares/Third_Party/FreeRTOS/Source/timers.c **** 		{
 666:Middlewares/Third_Party/FreeRTOS/Source/timers.c **** 			vListInsert( pxOverflowTimerList, &( pxTimer->xTimerListItem ) );
 667:Middlewares/Third_Party/FreeRTOS/Source/timers.c **** 		}
 668:Middlewares/Third_Party/FreeRTOS/Source/timers.c **** 	}
 669:Middlewares/Third_Party/FreeRTOS/Source/timers.c **** 	else
 670:Middlewares/Third_Party/FreeRTOS/Source/timers.c **** 	{
 671:Middlewares/Third_Party/FreeRTOS/Source/timers.c **** 		if( ( xTimeNow < xCommandTime ) && ( xNextExpiryTime >= xCommandTime ) )
 672:Middlewares/Third_Party/FreeRTOS/Source/timers.c **** 		{
 673:Middlewares/Third_Party/FreeRTOS/Source/timers.c **** 			/* If, since the command was issued, the tick count has overflowed
 674:Middlewares/Third_Party/FreeRTOS/Source/timers.c **** 			but the expiry time has not, then the timer must have already passed
 675:Middlewares/Third_Party/FreeRTOS/Source/timers.c **** 			its expiry time and should be processed immediately. */
 676:Middlewares/Third_Party/FreeRTOS/Source/timers.c **** 			xProcessTimerNow = pdTRUE;
 677:Middlewares/Third_Party/FreeRTOS/Source/timers.c **** 		}
 678:Middlewares/Third_Party/FreeRTOS/Source/timers.c **** 		else
 679:Middlewares/Third_Party/FreeRTOS/Source/timers.c **** 		{
 680:Middlewares/Third_Party/FreeRTOS/Source/timers.c **** 			vListInsert( pxCurrentTimerList, &( pxTimer->xTimerListItem ) );
 681:Middlewares/Third_Party/FreeRTOS/Source/timers.c **** 		}
 682:Middlewares/Third_Party/FreeRTOS/Source/timers.c **** 	}
 683:Middlewares/Third_Party/FreeRTOS/Source/timers.c **** 
 684:Middlewares/Third_Party/FreeRTOS/Source/timers.c **** 	return xProcessTimerNow;
 685:Middlewares/Third_Party/FreeRTOS/Source/timers.c **** }
 112              		.loc 1 685 1 view .LVU26
 113 0014 08BD     		pop	{r3, pc}
 114              	.LVL9:
 115              	.L13:
 666:Middlewares/Third_Party/FreeRTOS/Source/timers.c **** 		}
ARM GAS  C:\Users\randommm\AppData\Local\Temp\ccIzDNWf.s 			page 15


 116              		.loc 1 666 4 is_stmt 1 view .LVU27
 117 0016 011D     		adds	r1, r0, #4
 118              	.LVL10:
 666:Middlewares/Third_Party/FreeRTOS/Source/timers.c **** 		}
 119              		.loc 1 666 4 is_stmt 0 view .LVU28
 120 0018 094B     		ldr	r3, .L14
 121 001a 1868     		ldr	r0, [r3]
 122              	.LVL11:
 666:Middlewares/Third_Party/FreeRTOS/Source/timers.c **** 		}
 123              		.loc 1 666 4 view .LVU29
 124 001c FFF7FEFF 		bl	vListInsert
 125              	.LVL12:
 649:Middlewares/Third_Party/FreeRTOS/Source/timers.c **** 
 126              		.loc 1 649 12 view .LVU30
 127 0020 0020     		movs	r0, #0
 128 0022 F7E7     		b	.L6
 129              	.LVL13:
 130              	.L7:
 671:Middlewares/Third_Party/FreeRTOS/Source/timers.c **** 		{
 131              		.loc 1 671 3 is_stmt 1 view .LVU31
 671:Middlewares/Third_Party/FreeRTOS/Source/timers.c **** 		{
 132              		.loc 1 671 5 is_stmt 0 view .LVU32
 133 0024 9A42     		cmp	r2, r3
 134 0026 01D2     		bcs	.L9
 671:Middlewares/Third_Party/FreeRTOS/Source/timers.c **** 		{
 135              		.loc 1 671 35 discriminator 1 view .LVU33
 136 0028 9942     		cmp	r1, r3
 137 002a 06D2     		bcs	.L11
 138              	.L9:
 680:Middlewares/Third_Party/FreeRTOS/Source/timers.c **** 		}
 139              		.loc 1 680 4 is_stmt 1 view .LVU34
 140 002c 011D     		adds	r1, r0, #4
 141              	.LVL14:
 680:Middlewares/Third_Party/FreeRTOS/Source/timers.c **** 		}
 142              		.loc 1 680 4 is_stmt 0 view .LVU35
 143 002e 054B     		ldr	r3, .L14+4
 144              	.LVL15:
 680:Middlewares/Third_Party/FreeRTOS/Source/timers.c **** 		}
 145              		.loc 1 680 4 view .LVU36
 146 0030 1868     		ldr	r0, [r3]
 147              	.LVL16:
 680:Middlewares/Third_Party/FreeRTOS/Source/timers.c **** 		}
 148              		.loc 1 680 4 view .LVU37
 149 0032 FFF7FEFF 		bl	vListInsert
 150              	.LVL17:
 649:Middlewares/Third_Party/FreeRTOS/Source/timers.c **** 
 151              		.loc 1 649 12 view .LVU38
 152 0036 0020     		movs	r0, #0
 153 0038 ECE7     		b	.L6
 154              	.LVL18:
 155              	.L11:
 676:Middlewares/Third_Party/FreeRTOS/Source/timers.c **** 		}
 156              		.loc 1 676 21 view .LVU39
 157 003a 0120     		movs	r0, #1
 158              	.LVL19:
 684:Middlewares/Third_Party/FreeRTOS/Source/timers.c **** }
 159              		.loc 1 684 2 is_stmt 1 view .LVU40
ARM GAS  C:\Users\randommm\AppData\Local\Temp\ccIzDNWf.s 			page 16


 684:Middlewares/Third_Party/FreeRTOS/Source/timers.c **** }
 160              		.loc 1 684 9 is_stmt 0 view .LVU41
 161 003c EAE7     		b	.L6
 162              	.L15:
 163 003e 00BF     		.align	2
 164              	.L14:
 165 0040 00000000 		.word	.LANCHOR1
 166 0044 00000000 		.word	.LANCHOR0
 167              		.cfi_endproc
 168              	.LFE18:
 170              		.section	.rodata.prvCheckForValidListAndQueue.str1.4,"aMS",%progbits,1
 171              		.align	2
 172              	.LC0:
 173 0000 546D7251 		.ascii	"TmrQ\000"
 173      00
 174              		.section	.text.prvCheckForValidListAndQueue,"ax",%progbits
 175              		.align	1
 176              		.syntax unified
 177              		.thumb
 178              		.thumb_func
 179              		.fpu softvfp
 181              	prvCheckForValidListAndQueue:
 182              	.LFB21:
 686:Middlewares/Third_Party/FreeRTOS/Source/timers.c **** /*-----------------------------------------------------------*/
 687:Middlewares/Third_Party/FreeRTOS/Source/timers.c **** 
 688:Middlewares/Third_Party/FreeRTOS/Source/timers.c **** static void	prvProcessReceivedCommands( void )
 689:Middlewares/Third_Party/FreeRTOS/Source/timers.c **** {
 690:Middlewares/Third_Party/FreeRTOS/Source/timers.c **** DaemonTaskMessage_t xMessage;
 691:Middlewares/Third_Party/FreeRTOS/Source/timers.c **** Timer_t *pxTimer;
 692:Middlewares/Third_Party/FreeRTOS/Source/timers.c **** BaseType_t xTimerListsWereSwitched, xResult;
 693:Middlewares/Third_Party/FreeRTOS/Source/timers.c **** TickType_t xTimeNow;
 694:Middlewares/Third_Party/FreeRTOS/Source/timers.c **** 
 695:Middlewares/Third_Party/FreeRTOS/Source/timers.c **** 	while( xQueueReceive( xTimerQueue, &xMessage, tmrNO_DELAY ) != pdFAIL ) /*lint !e603 xMessage does
 696:Middlewares/Third_Party/FreeRTOS/Source/timers.c **** 	{
 697:Middlewares/Third_Party/FreeRTOS/Source/timers.c **** 		#if ( INCLUDE_xTimerPendFunctionCall == 1 )
 698:Middlewares/Third_Party/FreeRTOS/Source/timers.c **** 		{
 699:Middlewares/Third_Party/FreeRTOS/Source/timers.c **** 			/* Negative commands are pended function calls rather than timer
 700:Middlewares/Third_Party/FreeRTOS/Source/timers.c **** 			commands. */
 701:Middlewares/Third_Party/FreeRTOS/Source/timers.c **** 			if( xMessage.xMessageID < ( BaseType_t ) 0 )
 702:Middlewares/Third_Party/FreeRTOS/Source/timers.c **** 			{
 703:Middlewares/Third_Party/FreeRTOS/Source/timers.c **** 				const CallbackParameters_t * const pxCallback = &( xMessage.u.xCallbackParameters );
 704:Middlewares/Third_Party/FreeRTOS/Source/timers.c **** 
 705:Middlewares/Third_Party/FreeRTOS/Source/timers.c **** 				/* The timer uses the xCallbackParameters member to request a
 706:Middlewares/Third_Party/FreeRTOS/Source/timers.c **** 				callback be executed.  Check the callback is not NULL. */
 707:Middlewares/Third_Party/FreeRTOS/Source/timers.c **** 				configASSERT( pxCallback );
 708:Middlewares/Third_Party/FreeRTOS/Source/timers.c **** 
 709:Middlewares/Third_Party/FreeRTOS/Source/timers.c **** 				/* Call the function. */
 710:Middlewares/Third_Party/FreeRTOS/Source/timers.c **** 				pxCallback->pxCallbackFunction( pxCallback->pvParameter1, pxCallback->ulParameter2 );
 711:Middlewares/Third_Party/FreeRTOS/Source/timers.c **** 			}
 712:Middlewares/Third_Party/FreeRTOS/Source/timers.c **** 			else
 713:Middlewares/Third_Party/FreeRTOS/Source/timers.c **** 			{
 714:Middlewares/Third_Party/FreeRTOS/Source/timers.c **** 				mtCOVERAGE_TEST_MARKER();
 715:Middlewares/Third_Party/FreeRTOS/Source/timers.c **** 			}
 716:Middlewares/Third_Party/FreeRTOS/Source/timers.c **** 		}
 717:Middlewares/Third_Party/FreeRTOS/Source/timers.c **** 		#endif /* INCLUDE_xTimerPendFunctionCall */
 718:Middlewares/Third_Party/FreeRTOS/Source/timers.c **** 
 719:Middlewares/Third_Party/FreeRTOS/Source/timers.c **** 		/* Commands that are positive are timer commands rather than pended
ARM GAS  C:\Users\randommm\AppData\Local\Temp\ccIzDNWf.s 			page 17


 720:Middlewares/Third_Party/FreeRTOS/Source/timers.c **** 		function calls. */
 721:Middlewares/Third_Party/FreeRTOS/Source/timers.c **** 		if( xMessage.xMessageID >= ( BaseType_t ) 0 )
 722:Middlewares/Third_Party/FreeRTOS/Source/timers.c **** 		{
 723:Middlewares/Third_Party/FreeRTOS/Source/timers.c **** 			/* The messages uses the xTimerParameters member to work on a
 724:Middlewares/Third_Party/FreeRTOS/Source/timers.c **** 			software timer. */
 725:Middlewares/Third_Party/FreeRTOS/Source/timers.c **** 			pxTimer = xMessage.u.xTimerParameters.pxTimer;
 726:Middlewares/Third_Party/FreeRTOS/Source/timers.c **** 
 727:Middlewares/Third_Party/FreeRTOS/Source/timers.c **** 			if( listIS_CONTAINED_WITHIN( NULL, &( pxTimer->xTimerListItem ) ) == pdFALSE ) /*lint !e961. The
 728:Middlewares/Third_Party/FreeRTOS/Source/timers.c **** 			{
 729:Middlewares/Third_Party/FreeRTOS/Source/timers.c **** 				/* The timer is in a list, remove it. */
 730:Middlewares/Third_Party/FreeRTOS/Source/timers.c **** 				( void ) uxListRemove( &( pxTimer->xTimerListItem ) );
 731:Middlewares/Third_Party/FreeRTOS/Source/timers.c **** 			}
 732:Middlewares/Third_Party/FreeRTOS/Source/timers.c **** 			else
 733:Middlewares/Third_Party/FreeRTOS/Source/timers.c **** 			{
 734:Middlewares/Third_Party/FreeRTOS/Source/timers.c **** 				mtCOVERAGE_TEST_MARKER();
 735:Middlewares/Third_Party/FreeRTOS/Source/timers.c **** 			}
 736:Middlewares/Third_Party/FreeRTOS/Source/timers.c **** 
 737:Middlewares/Third_Party/FreeRTOS/Source/timers.c **** 			traceTIMER_COMMAND_RECEIVED( pxTimer, xMessage.xMessageID, xMessage.u.xTimerParameters.xMessageV
 738:Middlewares/Third_Party/FreeRTOS/Source/timers.c **** 
 739:Middlewares/Third_Party/FreeRTOS/Source/timers.c **** 			/* In this case the xTimerListsWereSwitched parameter is not used, but
 740:Middlewares/Third_Party/FreeRTOS/Source/timers.c **** 			it must be present in the function call.  prvSampleTimeNow() must be
 741:Middlewares/Third_Party/FreeRTOS/Source/timers.c **** 			called after the message is received from xTimerQueue so there is no
 742:Middlewares/Third_Party/FreeRTOS/Source/timers.c **** 			possibility of a higher priority task adding a message to the message
 743:Middlewares/Third_Party/FreeRTOS/Source/timers.c **** 			queue with a time that is ahead of the timer daemon task (because it
 744:Middlewares/Third_Party/FreeRTOS/Source/timers.c **** 			pre-empted the timer daemon task after the xTimeNow value was set). */
 745:Middlewares/Third_Party/FreeRTOS/Source/timers.c **** 			xTimeNow = prvSampleTimeNow( &xTimerListsWereSwitched );
 746:Middlewares/Third_Party/FreeRTOS/Source/timers.c **** 
 747:Middlewares/Third_Party/FreeRTOS/Source/timers.c **** 			switch( xMessage.xMessageID )
 748:Middlewares/Third_Party/FreeRTOS/Source/timers.c **** 			{
 749:Middlewares/Third_Party/FreeRTOS/Source/timers.c **** 				case tmrCOMMAND_START :
 750:Middlewares/Third_Party/FreeRTOS/Source/timers.c **** 			    case tmrCOMMAND_START_FROM_ISR :
 751:Middlewares/Third_Party/FreeRTOS/Source/timers.c **** 			    case tmrCOMMAND_RESET :
 752:Middlewares/Third_Party/FreeRTOS/Source/timers.c **** 			    case tmrCOMMAND_RESET_FROM_ISR :
 753:Middlewares/Third_Party/FreeRTOS/Source/timers.c **** 				case tmrCOMMAND_START_DONT_TRACE :
 754:Middlewares/Third_Party/FreeRTOS/Source/timers.c **** 					/* Start or restart a timer. */
 755:Middlewares/Third_Party/FreeRTOS/Source/timers.c **** 					if( prvInsertTimerInActiveList( pxTimer,  xMessage.u.xTimerParameters.xMessageValue + pxTimer-
 756:Middlewares/Third_Party/FreeRTOS/Source/timers.c **** 					{
 757:Middlewares/Third_Party/FreeRTOS/Source/timers.c **** 						/* The timer expired before it was added to the active
 758:Middlewares/Third_Party/FreeRTOS/Source/timers.c **** 						timer list.  Process it now. */
 759:Middlewares/Third_Party/FreeRTOS/Source/timers.c **** 						pxTimer->pxCallbackFunction( ( TimerHandle_t ) pxTimer );
 760:Middlewares/Third_Party/FreeRTOS/Source/timers.c **** 						traceTIMER_EXPIRED( pxTimer );
 761:Middlewares/Third_Party/FreeRTOS/Source/timers.c **** 
 762:Middlewares/Third_Party/FreeRTOS/Source/timers.c **** 						if( pxTimer->uxAutoReload == ( UBaseType_t ) pdTRUE )
 763:Middlewares/Third_Party/FreeRTOS/Source/timers.c **** 						{
 764:Middlewares/Third_Party/FreeRTOS/Source/timers.c **** 							xResult = xTimerGenericCommand( pxTimer, tmrCOMMAND_START_DONT_TRACE, xMessage.u.xTimerParam
 765:Middlewares/Third_Party/FreeRTOS/Source/timers.c **** 							configASSERT( xResult );
 766:Middlewares/Third_Party/FreeRTOS/Source/timers.c **** 							( void ) xResult;
 767:Middlewares/Third_Party/FreeRTOS/Source/timers.c **** 						}
 768:Middlewares/Third_Party/FreeRTOS/Source/timers.c **** 						else
 769:Middlewares/Third_Party/FreeRTOS/Source/timers.c **** 						{
 770:Middlewares/Third_Party/FreeRTOS/Source/timers.c **** 							mtCOVERAGE_TEST_MARKER();
 771:Middlewares/Third_Party/FreeRTOS/Source/timers.c **** 						}
 772:Middlewares/Third_Party/FreeRTOS/Source/timers.c **** 					}
 773:Middlewares/Third_Party/FreeRTOS/Source/timers.c **** 					else
 774:Middlewares/Third_Party/FreeRTOS/Source/timers.c **** 					{
 775:Middlewares/Third_Party/FreeRTOS/Source/timers.c **** 						mtCOVERAGE_TEST_MARKER();
 776:Middlewares/Third_Party/FreeRTOS/Source/timers.c **** 					}
ARM GAS  C:\Users\randommm\AppData\Local\Temp\ccIzDNWf.s 			page 18


 777:Middlewares/Third_Party/FreeRTOS/Source/timers.c **** 					break;
 778:Middlewares/Third_Party/FreeRTOS/Source/timers.c **** 
 779:Middlewares/Third_Party/FreeRTOS/Source/timers.c **** 				case tmrCOMMAND_STOP :
 780:Middlewares/Third_Party/FreeRTOS/Source/timers.c **** 				case tmrCOMMAND_STOP_FROM_ISR :
 781:Middlewares/Third_Party/FreeRTOS/Source/timers.c **** 					/* The timer has already been removed from the active list.
 782:Middlewares/Third_Party/FreeRTOS/Source/timers.c **** 					There is nothing to do here. */
 783:Middlewares/Third_Party/FreeRTOS/Source/timers.c **** 					break;
 784:Middlewares/Third_Party/FreeRTOS/Source/timers.c **** 
 785:Middlewares/Third_Party/FreeRTOS/Source/timers.c **** 				case tmrCOMMAND_CHANGE_PERIOD :
 786:Middlewares/Third_Party/FreeRTOS/Source/timers.c **** 				case tmrCOMMAND_CHANGE_PERIOD_FROM_ISR :
 787:Middlewares/Third_Party/FreeRTOS/Source/timers.c **** 					pxTimer->xTimerPeriodInTicks = xMessage.u.xTimerParameters.xMessageValue;
 788:Middlewares/Third_Party/FreeRTOS/Source/timers.c **** 					configASSERT( ( pxTimer->xTimerPeriodInTicks > 0 ) );
 789:Middlewares/Third_Party/FreeRTOS/Source/timers.c **** 
 790:Middlewares/Third_Party/FreeRTOS/Source/timers.c **** 					/* The new period does not really have a reference, and can
 791:Middlewares/Third_Party/FreeRTOS/Source/timers.c **** 					be longer or shorter than the old one.  The command time is
 792:Middlewares/Third_Party/FreeRTOS/Source/timers.c **** 					therefore set to the current time, and as the period cannot
 793:Middlewares/Third_Party/FreeRTOS/Source/timers.c **** 					be zero the next expiry time can only be in the future,
 794:Middlewares/Third_Party/FreeRTOS/Source/timers.c **** 					meaning (unlike for the xTimerStart() case above) there is
 795:Middlewares/Third_Party/FreeRTOS/Source/timers.c **** 					no fail case that needs to be handled here. */
 796:Middlewares/Third_Party/FreeRTOS/Source/timers.c **** 					( void ) prvInsertTimerInActiveList( pxTimer, ( xTimeNow + pxTimer->xTimerPeriodInTicks ), xTi
 797:Middlewares/Third_Party/FreeRTOS/Source/timers.c **** 					break;
 798:Middlewares/Third_Party/FreeRTOS/Source/timers.c **** 
 799:Middlewares/Third_Party/FreeRTOS/Source/timers.c **** 				case tmrCOMMAND_DELETE :
 800:Middlewares/Third_Party/FreeRTOS/Source/timers.c **** 					/* The timer has already been removed from the active list,
 801:Middlewares/Third_Party/FreeRTOS/Source/timers.c **** 					just free up the memory if the memory was dynamically
 802:Middlewares/Third_Party/FreeRTOS/Source/timers.c **** 					allocated. */
 803:Middlewares/Third_Party/FreeRTOS/Source/timers.c **** 					#if( ( configSUPPORT_DYNAMIC_ALLOCATION == 1 ) && ( configSUPPORT_STATIC_ALLOCATION == 0 ) )
 804:Middlewares/Third_Party/FreeRTOS/Source/timers.c **** 					{
 805:Middlewares/Third_Party/FreeRTOS/Source/timers.c **** 						/* The timer can only have been allocated dynamically -
 806:Middlewares/Third_Party/FreeRTOS/Source/timers.c **** 						free it again. */
 807:Middlewares/Third_Party/FreeRTOS/Source/timers.c **** 						vPortFree( pxTimer );
 808:Middlewares/Third_Party/FreeRTOS/Source/timers.c **** 					}
 809:Middlewares/Third_Party/FreeRTOS/Source/timers.c **** 					#elif( ( configSUPPORT_DYNAMIC_ALLOCATION == 1 ) && ( configSUPPORT_STATIC_ALLOCATION == 1 ) )
 810:Middlewares/Third_Party/FreeRTOS/Source/timers.c **** 					{
 811:Middlewares/Third_Party/FreeRTOS/Source/timers.c **** 						/* The timer could have been allocated statically or
 812:Middlewares/Third_Party/FreeRTOS/Source/timers.c **** 						dynamically, so check before attempting to free the
 813:Middlewares/Third_Party/FreeRTOS/Source/timers.c **** 						memory. */
 814:Middlewares/Third_Party/FreeRTOS/Source/timers.c **** 						if( pxTimer->ucStaticallyAllocated == ( uint8_t ) pdFALSE )
 815:Middlewares/Third_Party/FreeRTOS/Source/timers.c **** 						{
 816:Middlewares/Third_Party/FreeRTOS/Source/timers.c **** 							vPortFree( pxTimer );
 817:Middlewares/Third_Party/FreeRTOS/Source/timers.c **** 						}
 818:Middlewares/Third_Party/FreeRTOS/Source/timers.c **** 						else
 819:Middlewares/Third_Party/FreeRTOS/Source/timers.c **** 						{
 820:Middlewares/Third_Party/FreeRTOS/Source/timers.c **** 							mtCOVERAGE_TEST_MARKER();
 821:Middlewares/Third_Party/FreeRTOS/Source/timers.c **** 						}
 822:Middlewares/Third_Party/FreeRTOS/Source/timers.c **** 					}
 823:Middlewares/Third_Party/FreeRTOS/Source/timers.c **** 					#endif /* configSUPPORT_DYNAMIC_ALLOCATION */
 824:Middlewares/Third_Party/FreeRTOS/Source/timers.c **** 					break;
 825:Middlewares/Third_Party/FreeRTOS/Source/timers.c **** 
 826:Middlewares/Third_Party/FreeRTOS/Source/timers.c **** 				default	:
 827:Middlewares/Third_Party/FreeRTOS/Source/timers.c **** 					/* Don't expect to get here. */
 828:Middlewares/Third_Party/FreeRTOS/Source/timers.c **** 					break;
 829:Middlewares/Third_Party/FreeRTOS/Source/timers.c **** 			}
 830:Middlewares/Third_Party/FreeRTOS/Source/timers.c **** 		}
 831:Middlewares/Third_Party/FreeRTOS/Source/timers.c **** 	}
 832:Middlewares/Third_Party/FreeRTOS/Source/timers.c **** }
 833:Middlewares/Third_Party/FreeRTOS/Source/timers.c **** /*-----------------------------------------------------------*/
ARM GAS  C:\Users\randommm\AppData\Local\Temp\ccIzDNWf.s 			page 19


 834:Middlewares/Third_Party/FreeRTOS/Source/timers.c **** 
 835:Middlewares/Third_Party/FreeRTOS/Source/timers.c **** static void prvSwitchTimerLists( void )
 836:Middlewares/Third_Party/FreeRTOS/Source/timers.c **** {
 837:Middlewares/Third_Party/FreeRTOS/Source/timers.c **** TickType_t xNextExpireTime, xReloadTime;
 838:Middlewares/Third_Party/FreeRTOS/Source/timers.c **** List_t *pxTemp;
 839:Middlewares/Third_Party/FreeRTOS/Source/timers.c **** Timer_t *pxTimer;
 840:Middlewares/Third_Party/FreeRTOS/Source/timers.c **** BaseType_t xResult;
 841:Middlewares/Third_Party/FreeRTOS/Source/timers.c **** 
 842:Middlewares/Third_Party/FreeRTOS/Source/timers.c **** 	/* The tick count has overflowed.  The timer lists must be switched.
 843:Middlewares/Third_Party/FreeRTOS/Source/timers.c **** 	If there are any timers still referenced from the current timer list
 844:Middlewares/Third_Party/FreeRTOS/Source/timers.c **** 	then they must have expired and should be processed before the lists
 845:Middlewares/Third_Party/FreeRTOS/Source/timers.c **** 	are switched. */
 846:Middlewares/Third_Party/FreeRTOS/Source/timers.c **** 	while( listLIST_IS_EMPTY( pxCurrentTimerList ) == pdFALSE )
 847:Middlewares/Third_Party/FreeRTOS/Source/timers.c **** 	{
 848:Middlewares/Third_Party/FreeRTOS/Source/timers.c **** 		xNextExpireTime = listGET_ITEM_VALUE_OF_HEAD_ENTRY( pxCurrentTimerList );
 849:Middlewares/Third_Party/FreeRTOS/Source/timers.c **** 
 850:Middlewares/Third_Party/FreeRTOS/Source/timers.c **** 		/* Remove the timer from the list. */
 851:Middlewares/Third_Party/FreeRTOS/Source/timers.c **** 		pxTimer = ( Timer_t * ) listGET_OWNER_OF_HEAD_ENTRY( pxCurrentTimerList );
 852:Middlewares/Third_Party/FreeRTOS/Source/timers.c **** 		( void ) uxListRemove( &( pxTimer->xTimerListItem ) );
 853:Middlewares/Third_Party/FreeRTOS/Source/timers.c **** 		traceTIMER_EXPIRED( pxTimer );
 854:Middlewares/Third_Party/FreeRTOS/Source/timers.c **** 
 855:Middlewares/Third_Party/FreeRTOS/Source/timers.c **** 		/* Execute its callback, then send a command to restart the timer if
 856:Middlewares/Third_Party/FreeRTOS/Source/timers.c **** 		it is an auto-reload timer.  It cannot be restarted here as the lists
 857:Middlewares/Third_Party/FreeRTOS/Source/timers.c **** 		have not yet been switched. */
 858:Middlewares/Third_Party/FreeRTOS/Source/timers.c **** 		pxTimer->pxCallbackFunction( ( TimerHandle_t ) pxTimer );
 859:Middlewares/Third_Party/FreeRTOS/Source/timers.c **** 
 860:Middlewares/Third_Party/FreeRTOS/Source/timers.c **** 		if( pxTimer->uxAutoReload == ( UBaseType_t ) pdTRUE )
 861:Middlewares/Third_Party/FreeRTOS/Source/timers.c **** 		{
 862:Middlewares/Third_Party/FreeRTOS/Source/timers.c **** 			/* Calculate the reload value, and if the reload value results in
 863:Middlewares/Third_Party/FreeRTOS/Source/timers.c **** 			the timer going into the same timer list then it has already expired
 864:Middlewares/Third_Party/FreeRTOS/Source/timers.c **** 			and the timer should be re-inserted into the current list so it is
 865:Middlewares/Third_Party/FreeRTOS/Source/timers.c **** 			processed again within this loop.  Otherwise a command should be sent
 866:Middlewares/Third_Party/FreeRTOS/Source/timers.c **** 			to restart the timer to ensure it is only inserted into a list after
 867:Middlewares/Third_Party/FreeRTOS/Source/timers.c **** 			the lists have been swapped. */
 868:Middlewares/Third_Party/FreeRTOS/Source/timers.c **** 			xReloadTime = ( xNextExpireTime + pxTimer->xTimerPeriodInTicks );
 869:Middlewares/Third_Party/FreeRTOS/Source/timers.c **** 			if( xReloadTime > xNextExpireTime )
 870:Middlewares/Third_Party/FreeRTOS/Source/timers.c **** 			{
 871:Middlewares/Third_Party/FreeRTOS/Source/timers.c **** 				listSET_LIST_ITEM_VALUE( &( pxTimer->xTimerListItem ), xReloadTime );
 872:Middlewares/Third_Party/FreeRTOS/Source/timers.c **** 				listSET_LIST_ITEM_OWNER( &( pxTimer->xTimerListItem ), pxTimer );
 873:Middlewares/Third_Party/FreeRTOS/Source/timers.c **** 				vListInsert( pxCurrentTimerList, &( pxTimer->xTimerListItem ) );
 874:Middlewares/Third_Party/FreeRTOS/Source/timers.c **** 			}
 875:Middlewares/Third_Party/FreeRTOS/Source/timers.c **** 			else
 876:Middlewares/Third_Party/FreeRTOS/Source/timers.c **** 			{
 877:Middlewares/Third_Party/FreeRTOS/Source/timers.c **** 				xResult = xTimerGenericCommand( pxTimer, tmrCOMMAND_START_DONT_TRACE, xNextExpireTime, NULL, tm
 878:Middlewares/Third_Party/FreeRTOS/Source/timers.c **** 				configASSERT( xResult );
 879:Middlewares/Third_Party/FreeRTOS/Source/timers.c **** 				( void ) xResult;
 880:Middlewares/Third_Party/FreeRTOS/Source/timers.c **** 			}
 881:Middlewares/Third_Party/FreeRTOS/Source/timers.c **** 		}
 882:Middlewares/Third_Party/FreeRTOS/Source/timers.c **** 		else
 883:Middlewares/Third_Party/FreeRTOS/Source/timers.c **** 		{
 884:Middlewares/Third_Party/FreeRTOS/Source/timers.c **** 			mtCOVERAGE_TEST_MARKER();
 885:Middlewares/Third_Party/FreeRTOS/Source/timers.c **** 		}
 886:Middlewares/Third_Party/FreeRTOS/Source/timers.c **** 	}
 887:Middlewares/Third_Party/FreeRTOS/Source/timers.c **** 
 888:Middlewares/Third_Party/FreeRTOS/Source/timers.c **** 	pxTemp = pxCurrentTimerList;
 889:Middlewares/Third_Party/FreeRTOS/Source/timers.c **** 	pxCurrentTimerList = pxOverflowTimerList;
 890:Middlewares/Third_Party/FreeRTOS/Source/timers.c **** 	pxOverflowTimerList = pxTemp;
ARM GAS  C:\Users\randommm\AppData\Local\Temp\ccIzDNWf.s 			page 20


 891:Middlewares/Third_Party/FreeRTOS/Source/timers.c **** }
 892:Middlewares/Third_Party/FreeRTOS/Source/timers.c **** /*-----------------------------------------------------------*/
 893:Middlewares/Third_Party/FreeRTOS/Source/timers.c **** 
 894:Middlewares/Third_Party/FreeRTOS/Source/timers.c **** static void prvCheckForValidListAndQueue( void )
 895:Middlewares/Third_Party/FreeRTOS/Source/timers.c **** {
 183              		.loc 1 895 1 is_stmt 1 view -0
 184              		.cfi_startproc
 185              		@ args = 0, pretend = 0, frame = 0
 186              		@ frame_needed = 0, uses_anonymous_args = 0
 187 0000 38B5     		push	{r3, r4, r5, lr}
 188              	.LCFI1:
 189              		.cfi_def_cfa_offset 16
 190              		.cfi_offset 3, -16
 191              		.cfi_offset 4, -12
 192              		.cfi_offset 5, -8
 193              		.cfi_offset 14, -4
 896:Middlewares/Third_Party/FreeRTOS/Source/timers.c **** 	/* Check that the list from which active timers are referenced, and the
 897:Middlewares/Third_Party/FreeRTOS/Source/timers.c **** 	queue used to communicate with the timer service, have been
 898:Middlewares/Third_Party/FreeRTOS/Source/timers.c **** 	initialised. */
 899:Middlewares/Third_Party/FreeRTOS/Source/timers.c **** 	taskENTER_CRITICAL();
 194              		.loc 1 899 2 view .LVU43
 195 0002 FFF7FEFF 		bl	vPortEnterCritical
 196              	.LVL20:
 900:Middlewares/Third_Party/FreeRTOS/Source/timers.c **** 	{
 901:Middlewares/Third_Party/FreeRTOS/Source/timers.c **** 		if( xTimerQueue == NULL )
 197              		.loc 1 901 3 view .LVU44
 198              		.loc 1 901 19 is_stmt 0 view .LVU45
 199 0006 0F4B     		ldr	r3, .L20
 200 0008 1B68     		ldr	r3, [r3]
 201              		.loc 1 901 5 view .LVU46
 202 000a 13B1     		cbz	r3, .L19
 203              	.L17:
 902:Middlewares/Third_Party/FreeRTOS/Source/timers.c **** 		{
 903:Middlewares/Third_Party/FreeRTOS/Source/timers.c **** 			vListInitialise( &xActiveTimerList1 );
 904:Middlewares/Third_Party/FreeRTOS/Source/timers.c **** 			vListInitialise( &xActiveTimerList2 );
 905:Middlewares/Third_Party/FreeRTOS/Source/timers.c **** 			pxCurrentTimerList = &xActiveTimerList1;
 906:Middlewares/Third_Party/FreeRTOS/Source/timers.c **** 			pxOverflowTimerList = &xActiveTimerList2;
 907:Middlewares/Third_Party/FreeRTOS/Source/timers.c **** 
 908:Middlewares/Third_Party/FreeRTOS/Source/timers.c **** 			#if( configSUPPORT_STATIC_ALLOCATION == 1 )
 909:Middlewares/Third_Party/FreeRTOS/Source/timers.c **** 			{
 910:Middlewares/Third_Party/FreeRTOS/Source/timers.c **** 				/* The timer queue is allocated statically in case
 911:Middlewares/Third_Party/FreeRTOS/Source/timers.c **** 				configSUPPORT_DYNAMIC_ALLOCATION is 0. */
 912:Middlewares/Third_Party/FreeRTOS/Source/timers.c **** 				static StaticQueue_t xStaticTimerQueue; /*lint !e956 Ok to declare in this manner to prevent ad
 913:Middlewares/Third_Party/FreeRTOS/Source/timers.c **** 				static uint8_t ucStaticTimerQueueStorage[ ( size_t ) configTIMER_QUEUE_LENGTH * sizeof( DaemonT
 914:Middlewares/Third_Party/FreeRTOS/Source/timers.c **** 
 915:Middlewares/Third_Party/FreeRTOS/Source/timers.c **** 				xTimerQueue = xQueueCreateStatic( ( UBaseType_t ) configTIMER_QUEUE_LENGTH, ( UBaseType_t ) siz
 916:Middlewares/Third_Party/FreeRTOS/Source/timers.c **** 			}
 917:Middlewares/Third_Party/FreeRTOS/Source/timers.c **** 			#else
 918:Middlewares/Third_Party/FreeRTOS/Source/timers.c **** 			{
 919:Middlewares/Third_Party/FreeRTOS/Source/timers.c **** 				xTimerQueue = xQueueCreate( ( UBaseType_t ) configTIMER_QUEUE_LENGTH, sizeof( DaemonTaskMessage
 920:Middlewares/Third_Party/FreeRTOS/Source/timers.c **** 			}
 921:Middlewares/Third_Party/FreeRTOS/Source/timers.c **** 			#endif
 922:Middlewares/Third_Party/FreeRTOS/Source/timers.c **** 
 923:Middlewares/Third_Party/FreeRTOS/Source/timers.c **** 			#if ( configQUEUE_REGISTRY_SIZE > 0 )
 924:Middlewares/Third_Party/FreeRTOS/Source/timers.c **** 			{
 925:Middlewares/Third_Party/FreeRTOS/Source/timers.c **** 				if( xTimerQueue != NULL )
 926:Middlewares/Third_Party/FreeRTOS/Source/timers.c **** 				{
ARM GAS  C:\Users\randommm\AppData\Local\Temp\ccIzDNWf.s 			page 21


 927:Middlewares/Third_Party/FreeRTOS/Source/timers.c **** 					vQueueAddToRegistry( xTimerQueue, "TmrQ" );
 928:Middlewares/Third_Party/FreeRTOS/Source/timers.c **** 				}
 929:Middlewares/Third_Party/FreeRTOS/Source/timers.c **** 				else
 930:Middlewares/Third_Party/FreeRTOS/Source/timers.c **** 				{
 931:Middlewares/Third_Party/FreeRTOS/Source/timers.c **** 					mtCOVERAGE_TEST_MARKER();
 932:Middlewares/Third_Party/FreeRTOS/Source/timers.c **** 				}
 933:Middlewares/Third_Party/FreeRTOS/Source/timers.c **** 			}
 934:Middlewares/Third_Party/FreeRTOS/Source/timers.c **** 			#endif /* configQUEUE_REGISTRY_SIZE */
 935:Middlewares/Third_Party/FreeRTOS/Source/timers.c **** 		}
 936:Middlewares/Third_Party/FreeRTOS/Source/timers.c **** 		else
 937:Middlewares/Third_Party/FreeRTOS/Source/timers.c **** 		{
 938:Middlewares/Third_Party/FreeRTOS/Source/timers.c **** 			mtCOVERAGE_TEST_MARKER();
 204              		.loc 1 938 28 is_stmt 1 view .LVU47
 939:Middlewares/Third_Party/FreeRTOS/Source/timers.c **** 		}
 940:Middlewares/Third_Party/FreeRTOS/Source/timers.c **** 	}
 941:Middlewares/Third_Party/FreeRTOS/Source/timers.c **** 	taskEXIT_CRITICAL();
 205              		.loc 1 941 2 view .LVU48
 206 000c FFF7FEFF 		bl	vPortExitCritical
 207              	.LVL21:
 942:Middlewares/Third_Party/FreeRTOS/Source/timers.c **** }
 208              		.loc 1 942 1 is_stmt 0 view .LVU49
 209 0010 38BD     		pop	{r3, r4, r5, pc}
 210              	.L19:
 903:Middlewares/Third_Party/FreeRTOS/Source/timers.c **** 			vListInitialise( &xActiveTimerList2 );
 211              		.loc 1 903 4 is_stmt 1 view .LVU50
 212 0012 0D4D     		ldr	r5, .L20+4
 213 0014 2846     		mov	r0, r5
 214 0016 FFF7FEFF 		bl	vListInitialise
 215              	.LVL22:
 904:Middlewares/Third_Party/FreeRTOS/Source/timers.c **** 			pxCurrentTimerList = &xActiveTimerList1;
 216              		.loc 1 904 4 view .LVU51
 217 001a 0C4C     		ldr	r4, .L20+8
 218 001c 2046     		mov	r0, r4
 219 001e FFF7FEFF 		bl	vListInitialise
 220              	.LVL23:
 905:Middlewares/Third_Party/FreeRTOS/Source/timers.c **** 			pxOverflowTimerList = &xActiveTimerList2;
 221              		.loc 1 905 4 view .LVU52
 905:Middlewares/Third_Party/FreeRTOS/Source/timers.c **** 			pxOverflowTimerList = &xActiveTimerList2;
 222              		.loc 1 905 23 is_stmt 0 view .LVU53
 223 0022 0B4B     		ldr	r3, .L20+12
 224 0024 1D60     		str	r5, [r3]
 906:Middlewares/Third_Party/FreeRTOS/Source/timers.c **** 
 225              		.loc 1 906 4 is_stmt 1 view .LVU54
 906:Middlewares/Third_Party/FreeRTOS/Source/timers.c **** 
 226              		.loc 1 906 24 is_stmt 0 view .LVU55
 227 0026 0B4B     		ldr	r3, .L20+16
 228 0028 1C60     		str	r4, [r3]
 919:Middlewares/Third_Party/FreeRTOS/Source/timers.c **** 			}
 229              		.loc 1 919 5 is_stmt 1 view .LVU56
 919:Middlewares/Third_Party/FreeRTOS/Source/timers.c **** 			}
 230              		.loc 1 919 19 is_stmt 0 view .LVU57
 231 002a 0022     		movs	r2, #0
 232 002c 1021     		movs	r1, #16
 233 002e 0A20     		movs	r0, #10
 234 0030 FFF7FEFF 		bl	xQueueGenericCreate
 235              	.LVL24:
 919:Middlewares/Third_Party/FreeRTOS/Source/timers.c **** 			}
ARM GAS  C:\Users\randommm\AppData\Local\Temp\ccIzDNWf.s 			page 22


 236              		.loc 1 919 17 view .LVU58
 237 0034 034B     		ldr	r3, .L20
 238 0036 1860     		str	r0, [r3]
 925:Middlewares/Third_Party/FreeRTOS/Source/timers.c **** 				{
 239              		.loc 1 925 5 is_stmt 1 view .LVU59
 925:Middlewares/Third_Party/FreeRTOS/Source/timers.c **** 				{
 240              		.loc 1 925 7 is_stmt 0 view .LVU60
 241 0038 0028     		cmp	r0, #0
 242 003a E7D0     		beq	.L17
 927:Middlewares/Third_Party/FreeRTOS/Source/timers.c **** 				}
 243              		.loc 1 927 6 is_stmt 1 view .LVU61
 244 003c 0649     		ldr	r1, .L20+20
 245 003e FFF7FEFF 		bl	vQueueAddToRegistry
 246              	.LVL25:
 247 0042 E3E7     		b	.L17
 248              	.L21:
 249              		.align	2
 250              	.L20:
 251 0044 00000000 		.word	.LANCHOR2
 252 0048 00000000 		.word	.LANCHOR3
 253 004c 00000000 		.word	.LANCHOR4
 254 0050 00000000 		.word	.LANCHOR0
 255 0054 00000000 		.word	.LANCHOR1
 256 0058 00000000 		.word	.LC0
 257              		.cfi_endproc
 258              	.LFE21:
 260              		.section	.text.prvInitialiseNewTimer,"ax",%progbits
 261              		.align	1
 262              		.syntax unified
 263              		.thumb
 264              		.thumb_func
 265              		.fpu softvfp
 267              	prvInitialiseNewTimer:
 268              	.LVL26:
 269              	.LFB7:
 358:Middlewares/Third_Party/FreeRTOS/Source/timers.c **** 	/* 0 is not a valid value for xTimerPeriodInTicks. */
 270              		.loc 1 358 1 view -0
 271              		.cfi_startproc
 272              		@ args = 8, pretend = 0, frame = 0
 273              		@ frame_needed = 0, uses_anonymous_args = 0
 358:Middlewares/Third_Party/FreeRTOS/Source/timers.c **** 	/* 0 is not a valid value for xTimerPeriodInTicks. */
 274              		.loc 1 358 1 is_stmt 0 view .LVU63
 275 0000 2DE9F041 		push	{r4, r5, r6, r7, r8, lr}
 276              	.LCFI2:
 277              		.cfi_def_cfa_offset 24
 278              		.cfi_offset 4, -24
 279              		.cfi_offset 5, -20
 280              		.cfi_offset 6, -16
 281              		.cfi_offset 7, -12
 282              		.cfi_offset 8, -8
 283              		.cfi_offset 14, -4
 284 0004 079F     		ldr	r7, [sp, #28]
 360:Middlewares/Third_Party/FreeRTOS/Source/timers.c **** 
 285              		.loc 1 360 2 is_stmt 1 view .LVU64
 286 0006 41B9     		cbnz	r1, .L23
 360:Middlewares/Third_Party/FreeRTOS/Source/timers.c **** 
 287              		.loc 1 360 2 view .LVU65
ARM GAS  C:\Users\randommm\AppData\Local\Temp\ccIzDNWf.s 			page 23


 288              	.LBB35:
 289              	.LBI35:
 290              		.file 2 "Middlewares/Third_Party/FreeRTOS/Source/portable/GCC/ARM_CM3/portmacro.h"
   1:Middlewares/Third_Party/FreeRTOS/Source/portable/GCC/ARM_CM3/portmacro.h **** /*
   2:Middlewares/Third_Party/FreeRTOS/Source/portable/GCC/ARM_CM3/portmacro.h ****  * FreeRTOS Kernel V10.0.1
   3:Middlewares/Third_Party/FreeRTOS/Source/portable/GCC/ARM_CM3/portmacro.h ****  * Copyright (C) 2017 Amazon.com, Inc. or its affiliates.  All Rights Reserved.
   4:Middlewares/Third_Party/FreeRTOS/Source/portable/GCC/ARM_CM3/portmacro.h ****  *
   5:Middlewares/Third_Party/FreeRTOS/Source/portable/GCC/ARM_CM3/portmacro.h ****  * Permission is hereby granted, free of charge, to any person obtaining a copy of
   6:Middlewares/Third_Party/FreeRTOS/Source/portable/GCC/ARM_CM3/portmacro.h ****  * this software and associated documentation files (the "Software"), to deal in
   7:Middlewares/Third_Party/FreeRTOS/Source/portable/GCC/ARM_CM3/portmacro.h ****  * the Software without restriction, including without limitation the rights to
   8:Middlewares/Third_Party/FreeRTOS/Source/portable/GCC/ARM_CM3/portmacro.h ****  * use, copy, modify, merge, publish, distribute, sublicense, and/or sell copies of
   9:Middlewares/Third_Party/FreeRTOS/Source/portable/GCC/ARM_CM3/portmacro.h ****  * the Software, and to permit persons to whom the Software is furnished to do so,
  10:Middlewares/Third_Party/FreeRTOS/Source/portable/GCC/ARM_CM3/portmacro.h ****  * subject to the following conditions:
  11:Middlewares/Third_Party/FreeRTOS/Source/portable/GCC/ARM_CM3/portmacro.h ****  *
  12:Middlewares/Third_Party/FreeRTOS/Source/portable/GCC/ARM_CM3/portmacro.h ****  * The above copyright notice and this permission notice shall be included in all
  13:Middlewares/Third_Party/FreeRTOS/Source/portable/GCC/ARM_CM3/portmacro.h ****  * copies or substantial portions of the Software.
  14:Middlewares/Third_Party/FreeRTOS/Source/portable/GCC/ARM_CM3/portmacro.h ****  *
  15:Middlewares/Third_Party/FreeRTOS/Source/portable/GCC/ARM_CM3/portmacro.h ****  * THE SOFTWARE IS PROVIDED "AS IS", WITHOUT WARRANTY OF ANY KIND, EXPRESS OR
  16:Middlewares/Third_Party/FreeRTOS/Source/portable/GCC/ARM_CM3/portmacro.h ****  * IMPLIED, INCLUDING BUT NOT LIMITED TO THE WARRANTIES OF MERCHANTABILITY, FITNESS
  17:Middlewares/Third_Party/FreeRTOS/Source/portable/GCC/ARM_CM3/portmacro.h ****  * FOR A PARTICULAR PURPOSE AND NONINFRINGEMENT. IN NO EVENT SHALL THE AUTHORS OR
  18:Middlewares/Third_Party/FreeRTOS/Source/portable/GCC/ARM_CM3/portmacro.h ****  * COPYRIGHT HOLDERS BE LIABLE FOR ANY CLAIM, DAMAGES OR OTHER LIABILITY, WHETHER
  19:Middlewares/Third_Party/FreeRTOS/Source/portable/GCC/ARM_CM3/portmacro.h ****  * IN AN ACTION OF CONTRACT, TORT OR OTHERWISE, ARISING FROM, OUT OF OR IN
  20:Middlewares/Third_Party/FreeRTOS/Source/portable/GCC/ARM_CM3/portmacro.h ****  * CONNECTION WITH THE SOFTWARE OR THE USE OR OTHER DEALINGS IN THE SOFTWARE.
  21:Middlewares/Third_Party/FreeRTOS/Source/portable/GCC/ARM_CM3/portmacro.h ****  *
  22:Middlewares/Third_Party/FreeRTOS/Source/portable/GCC/ARM_CM3/portmacro.h ****  * http://www.FreeRTOS.org
  23:Middlewares/Third_Party/FreeRTOS/Source/portable/GCC/ARM_CM3/portmacro.h ****  * http://aws.amazon.com/freertos
  24:Middlewares/Third_Party/FreeRTOS/Source/portable/GCC/ARM_CM3/portmacro.h ****  *
  25:Middlewares/Third_Party/FreeRTOS/Source/portable/GCC/ARM_CM3/portmacro.h ****  * 1 tab == 4 spaces!
  26:Middlewares/Third_Party/FreeRTOS/Source/portable/GCC/ARM_CM3/portmacro.h ****  */
  27:Middlewares/Third_Party/FreeRTOS/Source/portable/GCC/ARM_CM3/portmacro.h **** 
  28:Middlewares/Third_Party/FreeRTOS/Source/portable/GCC/ARM_CM3/portmacro.h **** 
  29:Middlewares/Third_Party/FreeRTOS/Source/portable/GCC/ARM_CM3/portmacro.h **** #ifndef PORTMACRO_H
  30:Middlewares/Third_Party/FreeRTOS/Source/portable/GCC/ARM_CM3/portmacro.h **** #define PORTMACRO_H
  31:Middlewares/Third_Party/FreeRTOS/Source/portable/GCC/ARM_CM3/portmacro.h **** 
  32:Middlewares/Third_Party/FreeRTOS/Source/portable/GCC/ARM_CM3/portmacro.h **** #ifdef __cplusplus
  33:Middlewares/Third_Party/FreeRTOS/Source/portable/GCC/ARM_CM3/portmacro.h **** extern "C" {
  34:Middlewares/Third_Party/FreeRTOS/Source/portable/GCC/ARM_CM3/portmacro.h **** #endif
  35:Middlewares/Third_Party/FreeRTOS/Source/portable/GCC/ARM_CM3/portmacro.h **** 
  36:Middlewares/Third_Party/FreeRTOS/Source/portable/GCC/ARM_CM3/portmacro.h **** /*-----------------------------------------------------------
  37:Middlewares/Third_Party/FreeRTOS/Source/portable/GCC/ARM_CM3/portmacro.h ****  * Port specific definitions.
  38:Middlewares/Third_Party/FreeRTOS/Source/portable/GCC/ARM_CM3/portmacro.h ****  *
  39:Middlewares/Third_Party/FreeRTOS/Source/portable/GCC/ARM_CM3/portmacro.h ****  * The settings in this file configure FreeRTOS correctly for the
  40:Middlewares/Third_Party/FreeRTOS/Source/portable/GCC/ARM_CM3/portmacro.h ****  * given hardware and compiler.
  41:Middlewares/Third_Party/FreeRTOS/Source/portable/GCC/ARM_CM3/portmacro.h ****  *
  42:Middlewares/Third_Party/FreeRTOS/Source/portable/GCC/ARM_CM3/portmacro.h ****  * These settings should not be altered.
  43:Middlewares/Third_Party/FreeRTOS/Source/portable/GCC/ARM_CM3/portmacro.h ****  *-----------------------------------------------------------
  44:Middlewares/Third_Party/FreeRTOS/Source/portable/GCC/ARM_CM3/portmacro.h ****  */
  45:Middlewares/Third_Party/FreeRTOS/Source/portable/GCC/ARM_CM3/portmacro.h **** 
  46:Middlewares/Third_Party/FreeRTOS/Source/portable/GCC/ARM_CM3/portmacro.h **** /* Type definitions. */
  47:Middlewares/Third_Party/FreeRTOS/Source/portable/GCC/ARM_CM3/portmacro.h **** #define portCHAR		char
  48:Middlewares/Third_Party/FreeRTOS/Source/portable/GCC/ARM_CM3/portmacro.h **** #define portFLOAT		float
  49:Middlewares/Third_Party/FreeRTOS/Source/portable/GCC/ARM_CM3/portmacro.h **** #define portDOUBLE		double
  50:Middlewares/Third_Party/FreeRTOS/Source/portable/GCC/ARM_CM3/portmacro.h **** #define portLONG		long
  51:Middlewares/Third_Party/FreeRTOS/Source/portable/GCC/ARM_CM3/portmacro.h **** #define portSHORT		short
  52:Middlewares/Third_Party/FreeRTOS/Source/portable/GCC/ARM_CM3/portmacro.h **** #define portSTACK_TYPE	uint32_t
  53:Middlewares/Third_Party/FreeRTOS/Source/portable/GCC/ARM_CM3/portmacro.h **** #define portBASE_TYPE	long
  54:Middlewares/Third_Party/FreeRTOS/Source/portable/GCC/ARM_CM3/portmacro.h **** 
ARM GAS  C:\Users\randommm\AppData\Local\Temp\ccIzDNWf.s 			page 24


  55:Middlewares/Third_Party/FreeRTOS/Source/portable/GCC/ARM_CM3/portmacro.h **** typedef portSTACK_TYPE StackType_t;
  56:Middlewares/Third_Party/FreeRTOS/Source/portable/GCC/ARM_CM3/portmacro.h **** typedef long BaseType_t;
  57:Middlewares/Third_Party/FreeRTOS/Source/portable/GCC/ARM_CM3/portmacro.h **** typedef unsigned long UBaseType_t;
  58:Middlewares/Third_Party/FreeRTOS/Source/portable/GCC/ARM_CM3/portmacro.h **** 
  59:Middlewares/Third_Party/FreeRTOS/Source/portable/GCC/ARM_CM3/portmacro.h **** #if( configUSE_16_BIT_TICKS == 1 )
  60:Middlewares/Third_Party/FreeRTOS/Source/portable/GCC/ARM_CM3/portmacro.h **** 	typedef uint16_t TickType_t;
  61:Middlewares/Third_Party/FreeRTOS/Source/portable/GCC/ARM_CM3/portmacro.h **** 	#define portMAX_DELAY ( TickType_t ) 0xffff
  62:Middlewares/Third_Party/FreeRTOS/Source/portable/GCC/ARM_CM3/portmacro.h **** #else
  63:Middlewares/Third_Party/FreeRTOS/Source/portable/GCC/ARM_CM3/portmacro.h **** 	typedef uint32_t TickType_t;
  64:Middlewares/Third_Party/FreeRTOS/Source/portable/GCC/ARM_CM3/portmacro.h **** 	#define portMAX_DELAY ( TickType_t ) 0xffffffffUL
  65:Middlewares/Third_Party/FreeRTOS/Source/portable/GCC/ARM_CM3/portmacro.h **** 
  66:Middlewares/Third_Party/FreeRTOS/Source/portable/GCC/ARM_CM3/portmacro.h **** 	/* 32-bit tick type on a 32-bit architecture, so reads of the tick count do
  67:Middlewares/Third_Party/FreeRTOS/Source/portable/GCC/ARM_CM3/portmacro.h **** 	not need to be guarded with a critical section. */
  68:Middlewares/Third_Party/FreeRTOS/Source/portable/GCC/ARM_CM3/portmacro.h **** 	#define portTICK_TYPE_IS_ATOMIC 1
  69:Middlewares/Third_Party/FreeRTOS/Source/portable/GCC/ARM_CM3/portmacro.h **** #endif
  70:Middlewares/Third_Party/FreeRTOS/Source/portable/GCC/ARM_CM3/portmacro.h **** /*-----------------------------------------------------------*/
  71:Middlewares/Third_Party/FreeRTOS/Source/portable/GCC/ARM_CM3/portmacro.h **** 
  72:Middlewares/Third_Party/FreeRTOS/Source/portable/GCC/ARM_CM3/portmacro.h **** /* Architecture specifics. */
  73:Middlewares/Third_Party/FreeRTOS/Source/portable/GCC/ARM_CM3/portmacro.h **** #define portSTACK_GROWTH			( -1 )
  74:Middlewares/Third_Party/FreeRTOS/Source/portable/GCC/ARM_CM3/portmacro.h **** #define portTICK_PERIOD_MS			( ( TickType_t ) 1000 / configTICK_RATE_HZ )
  75:Middlewares/Third_Party/FreeRTOS/Source/portable/GCC/ARM_CM3/portmacro.h **** #define portBYTE_ALIGNMENT			8
  76:Middlewares/Third_Party/FreeRTOS/Source/portable/GCC/ARM_CM3/portmacro.h **** /*-----------------------------------------------------------*/
  77:Middlewares/Third_Party/FreeRTOS/Source/portable/GCC/ARM_CM3/portmacro.h **** 
  78:Middlewares/Third_Party/FreeRTOS/Source/portable/GCC/ARM_CM3/portmacro.h **** /* Scheduler utilities. */
  79:Middlewares/Third_Party/FreeRTOS/Source/portable/GCC/ARM_CM3/portmacro.h **** #define portYIELD() 															\
  80:Middlewares/Third_Party/FreeRTOS/Source/portable/GCC/ARM_CM3/portmacro.h **** {																				\
  81:Middlewares/Third_Party/FreeRTOS/Source/portable/GCC/ARM_CM3/portmacro.h **** 	/* Set a PendSV to request a context switch. */								\
  82:Middlewares/Third_Party/FreeRTOS/Source/portable/GCC/ARM_CM3/portmacro.h **** 	portNVIC_INT_CTRL_REG = portNVIC_PENDSVSET_BIT;								\
  83:Middlewares/Third_Party/FreeRTOS/Source/portable/GCC/ARM_CM3/portmacro.h **** 																				\
  84:Middlewares/Third_Party/FreeRTOS/Source/portable/GCC/ARM_CM3/portmacro.h **** 	/* Barriers are normally not required but do ensure the code is completely	\
  85:Middlewares/Third_Party/FreeRTOS/Source/portable/GCC/ARM_CM3/portmacro.h **** 	within the specified behaviour for the architecture. */						\
  86:Middlewares/Third_Party/FreeRTOS/Source/portable/GCC/ARM_CM3/portmacro.h **** 	__asm volatile( "dsb" ::: "memory" );										\
  87:Middlewares/Third_Party/FreeRTOS/Source/portable/GCC/ARM_CM3/portmacro.h **** 	__asm volatile( "isb" );													\
  88:Middlewares/Third_Party/FreeRTOS/Source/portable/GCC/ARM_CM3/portmacro.h **** }
  89:Middlewares/Third_Party/FreeRTOS/Source/portable/GCC/ARM_CM3/portmacro.h **** 
  90:Middlewares/Third_Party/FreeRTOS/Source/portable/GCC/ARM_CM3/portmacro.h **** #define portNVIC_INT_CTRL_REG		( * ( ( volatile uint32_t * ) 0xe000ed04 ) )
  91:Middlewares/Third_Party/FreeRTOS/Source/portable/GCC/ARM_CM3/portmacro.h **** #define portNVIC_PENDSVSET_BIT		( 1UL << 28UL )
  92:Middlewares/Third_Party/FreeRTOS/Source/portable/GCC/ARM_CM3/portmacro.h **** #define portEND_SWITCHING_ISR( xSwitchRequired ) if( xSwitchRequired != pdFALSE ) portYIELD()
  93:Middlewares/Third_Party/FreeRTOS/Source/portable/GCC/ARM_CM3/portmacro.h **** #define portYIELD_FROM_ISR( x ) portEND_SWITCHING_ISR( x )
  94:Middlewares/Third_Party/FreeRTOS/Source/portable/GCC/ARM_CM3/portmacro.h **** /*-----------------------------------------------------------*/
  95:Middlewares/Third_Party/FreeRTOS/Source/portable/GCC/ARM_CM3/portmacro.h **** 
  96:Middlewares/Third_Party/FreeRTOS/Source/portable/GCC/ARM_CM3/portmacro.h **** /* Critical section management. */
  97:Middlewares/Third_Party/FreeRTOS/Source/portable/GCC/ARM_CM3/portmacro.h **** extern void vPortEnterCritical( void );
  98:Middlewares/Third_Party/FreeRTOS/Source/portable/GCC/ARM_CM3/portmacro.h **** extern void vPortExitCritical( void );
  99:Middlewares/Third_Party/FreeRTOS/Source/portable/GCC/ARM_CM3/portmacro.h **** #define portSET_INTERRUPT_MASK_FROM_ISR()		ulPortRaiseBASEPRI()
 100:Middlewares/Third_Party/FreeRTOS/Source/portable/GCC/ARM_CM3/portmacro.h **** #define portCLEAR_INTERRUPT_MASK_FROM_ISR(x)	vPortSetBASEPRI(x)
 101:Middlewares/Third_Party/FreeRTOS/Source/portable/GCC/ARM_CM3/portmacro.h **** #define portDISABLE_INTERRUPTS()				vPortRaiseBASEPRI()
 102:Middlewares/Third_Party/FreeRTOS/Source/portable/GCC/ARM_CM3/portmacro.h **** #define portENABLE_INTERRUPTS()					vPortSetBASEPRI(0)
 103:Middlewares/Third_Party/FreeRTOS/Source/portable/GCC/ARM_CM3/portmacro.h **** #define portENTER_CRITICAL()					vPortEnterCritical()
 104:Middlewares/Third_Party/FreeRTOS/Source/portable/GCC/ARM_CM3/portmacro.h **** #define portEXIT_CRITICAL()						vPortExitCritical()
 105:Middlewares/Third_Party/FreeRTOS/Source/portable/GCC/ARM_CM3/portmacro.h **** 
 106:Middlewares/Third_Party/FreeRTOS/Source/portable/GCC/ARM_CM3/portmacro.h **** /*-----------------------------------------------------------*/
 107:Middlewares/Third_Party/FreeRTOS/Source/portable/GCC/ARM_CM3/portmacro.h **** 
 108:Middlewares/Third_Party/FreeRTOS/Source/portable/GCC/ARM_CM3/portmacro.h **** /* Task function macros as described on the FreeRTOS.org WEB site.  These are
 109:Middlewares/Third_Party/FreeRTOS/Source/portable/GCC/ARM_CM3/portmacro.h **** not necessary for to use this port.  They are defined so the common demo files
 110:Middlewares/Third_Party/FreeRTOS/Source/portable/GCC/ARM_CM3/portmacro.h **** (which build with all the ports) will build. */
 111:Middlewares/Third_Party/FreeRTOS/Source/portable/GCC/ARM_CM3/portmacro.h **** #define portTASK_FUNCTION_PROTO( vFunction, pvParameters ) void vFunction( void *pvParameters )
ARM GAS  C:\Users\randommm\AppData\Local\Temp\ccIzDNWf.s 			page 25


 112:Middlewares/Third_Party/FreeRTOS/Source/portable/GCC/ARM_CM3/portmacro.h **** #define portTASK_FUNCTION( vFunction, pvParameters ) void vFunction( void *pvParameters )
 113:Middlewares/Third_Party/FreeRTOS/Source/portable/GCC/ARM_CM3/portmacro.h **** /*-----------------------------------------------------------*/
 114:Middlewares/Third_Party/FreeRTOS/Source/portable/GCC/ARM_CM3/portmacro.h **** 
 115:Middlewares/Third_Party/FreeRTOS/Source/portable/GCC/ARM_CM3/portmacro.h **** /* Tickless idle/low power functionality. */
 116:Middlewares/Third_Party/FreeRTOS/Source/portable/GCC/ARM_CM3/portmacro.h **** #ifndef portSUPPRESS_TICKS_AND_SLEEP
 117:Middlewares/Third_Party/FreeRTOS/Source/portable/GCC/ARM_CM3/portmacro.h **** 	extern void vPortSuppressTicksAndSleep( TickType_t xExpectedIdleTime );
 118:Middlewares/Third_Party/FreeRTOS/Source/portable/GCC/ARM_CM3/portmacro.h **** 	#define portSUPPRESS_TICKS_AND_SLEEP( xExpectedIdleTime ) vPortSuppressTicksAndSleep( xExpectedIdl
 119:Middlewares/Third_Party/FreeRTOS/Source/portable/GCC/ARM_CM3/portmacro.h **** #endif
 120:Middlewares/Third_Party/FreeRTOS/Source/portable/GCC/ARM_CM3/portmacro.h **** /*-----------------------------------------------------------*/
 121:Middlewares/Third_Party/FreeRTOS/Source/portable/GCC/ARM_CM3/portmacro.h **** 
 122:Middlewares/Third_Party/FreeRTOS/Source/portable/GCC/ARM_CM3/portmacro.h **** /* Architecture specific optimisations. */
 123:Middlewares/Third_Party/FreeRTOS/Source/portable/GCC/ARM_CM3/portmacro.h **** #ifndef configUSE_PORT_OPTIMISED_TASK_SELECTION
 124:Middlewares/Third_Party/FreeRTOS/Source/portable/GCC/ARM_CM3/portmacro.h **** 	#define configUSE_PORT_OPTIMISED_TASK_SELECTION 1
 125:Middlewares/Third_Party/FreeRTOS/Source/portable/GCC/ARM_CM3/portmacro.h **** #endif
 126:Middlewares/Third_Party/FreeRTOS/Source/portable/GCC/ARM_CM3/portmacro.h **** 
 127:Middlewares/Third_Party/FreeRTOS/Source/portable/GCC/ARM_CM3/portmacro.h **** #if configUSE_PORT_OPTIMISED_TASK_SELECTION == 1
 128:Middlewares/Third_Party/FreeRTOS/Source/portable/GCC/ARM_CM3/portmacro.h **** 
 129:Middlewares/Third_Party/FreeRTOS/Source/portable/GCC/ARM_CM3/portmacro.h **** 	/* Generic helper function. */
 130:Middlewares/Third_Party/FreeRTOS/Source/portable/GCC/ARM_CM3/portmacro.h **** 	__attribute__( ( always_inline ) ) static inline uint8_t ucPortCountLeadingZeros( uint32_t ulBitma
 131:Middlewares/Third_Party/FreeRTOS/Source/portable/GCC/ARM_CM3/portmacro.h **** 	{
 132:Middlewares/Third_Party/FreeRTOS/Source/portable/GCC/ARM_CM3/portmacro.h **** 	uint8_t ucReturn;
 133:Middlewares/Third_Party/FreeRTOS/Source/portable/GCC/ARM_CM3/portmacro.h **** 
 134:Middlewares/Third_Party/FreeRTOS/Source/portable/GCC/ARM_CM3/portmacro.h **** 		__asm volatile ( "clz %0, %1" : "=r" ( ucReturn ) : "r" ( ulBitmap ) : "memory" );
 135:Middlewares/Third_Party/FreeRTOS/Source/portable/GCC/ARM_CM3/portmacro.h **** 		return ucReturn;
 136:Middlewares/Third_Party/FreeRTOS/Source/portable/GCC/ARM_CM3/portmacro.h **** 	}
 137:Middlewares/Third_Party/FreeRTOS/Source/portable/GCC/ARM_CM3/portmacro.h **** 
 138:Middlewares/Third_Party/FreeRTOS/Source/portable/GCC/ARM_CM3/portmacro.h **** 	/* Check the configuration. */
 139:Middlewares/Third_Party/FreeRTOS/Source/portable/GCC/ARM_CM3/portmacro.h **** 	#if( configMAX_PRIORITIES > 32 )
 140:Middlewares/Third_Party/FreeRTOS/Source/portable/GCC/ARM_CM3/portmacro.h **** 		#error configUSE_PORT_OPTIMISED_TASK_SELECTION can only be set to 1 when configMAX_PRIORITIES is 
 141:Middlewares/Third_Party/FreeRTOS/Source/portable/GCC/ARM_CM3/portmacro.h **** 	#endif
 142:Middlewares/Third_Party/FreeRTOS/Source/portable/GCC/ARM_CM3/portmacro.h **** 
 143:Middlewares/Third_Party/FreeRTOS/Source/portable/GCC/ARM_CM3/portmacro.h **** 	/* Store/clear the ready priorities in a bit map. */
 144:Middlewares/Third_Party/FreeRTOS/Source/portable/GCC/ARM_CM3/portmacro.h **** 	#define portRECORD_READY_PRIORITY( uxPriority, uxReadyPriorities ) ( uxReadyPriorities ) |= ( 1UL 
 145:Middlewares/Third_Party/FreeRTOS/Source/portable/GCC/ARM_CM3/portmacro.h **** 	#define portRESET_READY_PRIORITY( uxPriority, uxReadyPriorities ) ( uxReadyPriorities ) &= ~( 1UL 
 146:Middlewares/Third_Party/FreeRTOS/Source/portable/GCC/ARM_CM3/portmacro.h **** 
 147:Middlewares/Third_Party/FreeRTOS/Source/portable/GCC/ARM_CM3/portmacro.h **** 	/*-----------------------------------------------------------*/
 148:Middlewares/Third_Party/FreeRTOS/Source/portable/GCC/ARM_CM3/portmacro.h **** 
 149:Middlewares/Third_Party/FreeRTOS/Source/portable/GCC/ARM_CM3/portmacro.h **** 	#define portGET_HIGHEST_PRIORITY( uxTopPriority, uxReadyPriorities ) uxTopPriority = ( 31UL - ( ui
 150:Middlewares/Third_Party/FreeRTOS/Source/portable/GCC/ARM_CM3/portmacro.h **** 
 151:Middlewares/Third_Party/FreeRTOS/Source/portable/GCC/ARM_CM3/portmacro.h **** #endif /* configUSE_PORT_OPTIMISED_TASK_SELECTION */
 152:Middlewares/Third_Party/FreeRTOS/Source/portable/GCC/ARM_CM3/portmacro.h **** 
 153:Middlewares/Third_Party/FreeRTOS/Source/portable/GCC/ARM_CM3/portmacro.h **** /*-----------------------------------------------------------*/
 154:Middlewares/Third_Party/FreeRTOS/Source/portable/GCC/ARM_CM3/portmacro.h **** 
 155:Middlewares/Third_Party/FreeRTOS/Source/portable/GCC/ARM_CM3/portmacro.h **** #ifdef configASSERT
 156:Middlewares/Third_Party/FreeRTOS/Source/portable/GCC/ARM_CM3/portmacro.h **** 	void vPortValidateInterruptPriority( void );
 157:Middlewares/Third_Party/FreeRTOS/Source/portable/GCC/ARM_CM3/portmacro.h **** 	#define portASSERT_IF_INTERRUPT_PRIORITY_INVALID() 	vPortValidateInterruptPriority()
 158:Middlewares/Third_Party/FreeRTOS/Source/portable/GCC/ARM_CM3/portmacro.h **** #endif
 159:Middlewares/Third_Party/FreeRTOS/Source/portable/GCC/ARM_CM3/portmacro.h **** 
 160:Middlewares/Third_Party/FreeRTOS/Source/portable/GCC/ARM_CM3/portmacro.h **** /* portNOP() is not required by this port. */
 161:Middlewares/Third_Party/FreeRTOS/Source/portable/GCC/ARM_CM3/portmacro.h **** #define portNOP()
 162:Middlewares/Third_Party/FreeRTOS/Source/portable/GCC/ARM_CM3/portmacro.h **** 
 163:Middlewares/Third_Party/FreeRTOS/Source/portable/GCC/ARM_CM3/portmacro.h **** #define portINLINE	__inline
 164:Middlewares/Third_Party/FreeRTOS/Source/portable/GCC/ARM_CM3/portmacro.h **** 
 165:Middlewares/Third_Party/FreeRTOS/Source/portable/GCC/ARM_CM3/portmacro.h **** #ifndef portFORCE_INLINE
 166:Middlewares/Third_Party/FreeRTOS/Source/portable/GCC/ARM_CM3/portmacro.h **** 	#define portFORCE_INLINE inline __attribute__(( always_inline))
 167:Middlewares/Third_Party/FreeRTOS/Source/portable/GCC/ARM_CM3/portmacro.h **** #endif
 168:Middlewares/Third_Party/FreeRTOS/Source/portable/GCC/ARM_CM3/portmacro.h **** 
ARM GAS  C:\Users\randommm\AppData\Local\Temp\ccIzDNWf.s 			page 26


 169:Middlewares/Third_Party/FreeRTOS/Source/portable/GCC/ARM_CM3/portmacro.h **** portFORCE_INLINE static BaseType_t xPortIsInsideInterrupt( void )
 170:Middlewares/Third_Party/FreeRTOS/Source/portable/GCC/ARM_CM3/portmacro.h **** {
 171:Middlewares/Third_Party/FreeRTOS/Source/portable/GCC/ARM_CM3/portmacro.h **** uint32_t ulCurrentInterrupt;
 172:Middlewares/Third_Party/FreeRTOS/Source/portable/GCC/ARM_CM3/portmacro.h **** BaseType_t xReturn;
 173:Middlewares/Third_Party/FreeRTOS/Source/portable/GCC/ARM_CM3/portmacro.h **** 
 174:Middlewares/Third_Party/FreeRTOS/Source/portable/GCC/ARM_CM3/portmacro.h **** 	/* Obtain the number of the currently executing interrupt. */
 175:Middlewares/Third_Party/FreeRTOS/Source/portable/GCC/ARM_CM3/portmacro.h **** 	__asm volatile( "mrs %0, ipsr" : "=r"( ulCurrentInterrupt ) :: "memory" );
 176:Middlewares/Third_Party/FreeRTOS/Source/portable/GCC/ARM_CM3/portmacro.h **** 
 177:Middlewares/Third_Party/FreeRTOS/Source/portable/GCC/ARM_CM3/portmacro.h **** 	if( ulCurrentInterrupt == 0 )
 178:Middlewares/Third_Party/FreeRTOS/Source/portable/GCC/ARM_CM3/portmacro.h **** 	{
 179:Middlewares/Third_Party/FreeRTOS/Source/portable/GCC/ARM_CM3/portmacro.h **** 		xReturn = pdFALSE;
 180:Middlewares/Third_Party/FreeRTOS/Source/portable/GCC/ARM_CM3/portmacro.h **** 	}
 181:Middlewares/Third_Party/FreeRTOS/Source/portable/GCC/ARM_CM3/portmacro.h **** 	else
 182:Middlewares/Third_Party/FreeRTOS/Source/portable/GCC/ARM_CM3/portmacro.h **** 	{
 183:Middlewares/Third_Party/FreeRTOS/Source/portable/GCC/ARM_CM3/portmacro.h **** 		xReturn = pdTRUE;
 184:Middlewares/Third_Party/FreeRTOS/Source/portable/GCC/ARM_CM3/portmacro.h **** 	}
 185:Middlewares/Third_Party/FreeRTOS/Source/portable/GCC/ARM_CM3/portmacro.h **** 
 186:Middlewares/Third_Party/FreeRTOS/Source/portable/GCC/ARM_CM3/portmacro.h **** 	return xReturn;
 187:Middlewares/Third_Party/FreeRTOS/Source/portable/GCC/ARM_CM3/portmacro.h **** }
 188:Middlewares/Third_Party/FreeRTOS/Source/portable/GCC/ARM_CM3/portmacro.h **** 
 189:Middlewares/Third_Party/FreeRTOS/Source/portable/GCC/ARM_CM3/portmacro.h **** /*-----------------------------------------------------------*/
 190:Middlewares/Third_Party/FreeRTOS/Source/portable/GCC/ARM_CM3/portmacro.h **** 
 191:Middlewares/Third_Party/FreeRTOS/Source/portable/GCC/ARM_CM3/portmacro.h **** portFORCE_INLINE static void vPortRaiseBASEPRI( void )
 291              		.loc 2 191 30 view .LVU66
 292              	.LBB36:
 192:Middlewares/Third_Party/FreeRTOS/Source/portable/GCC/ARM_CM3/portmacro.h **** {
 193:Middlewares/Third_Party/FreeRTOS/Source/portable/GCC/ARM_CM3/portmacro.h **** uint32_t ulNewBASEPRI;
 293              		.loc 2 193 1 view .LVU67
 194:Middlewares/Third_Party/FreeRTOS/Source/portable/GCC/ARM_CM3/portmacro.h **** 
 195:Middlewares/Third_Party/FreeRTOS/Source/portable/GCC/ARM_CM3/portmacro.h **** 	__asm volatile
 294              		.loc 2 195 2 view .LVU68
 295              		.syntax unified
 296              	@ 195 "Middlewares/Third_Party/FreeRTOS/Source/portable/GCC/ARM_CM3/portmacro.h" 1
 297 0008 4FF01003 			mov r3, #16												
 298 000c 83F31188 		msr basepri, r3											
 299 0010 BFF36F8F 		isb														
 300 0014 BFF34F8F 		dsb														
 301              	
 302              	@ 0 "" 2
 303              	.LVL27:
 304              		.thumb
 305              		.syntax unified
 306              	.L24:
 307              		.loc 2 195 2 is_stmt 0 view .LVU69
 308              	.LBE36:
 309              	.LBE35:
 360:Middlewares/Third_Party/FreeRTOS/Source/timers.c **** 
 310              		.loc 1 360 2 is_stmt 1 discriminator 1 view .LVU70
 360:Middlewares/Third_Party/FreeRTOS/Source/timers.c **** 
 311              		.loc 1 360 2 discriminator 1 view .LVU71
 360:Middlewares/Third_Party/FreeRTOS/Source/timers.c **** 
 312              		.loc 1 360 2 discriminator 1 view .LVU72
 313 0018 FEE7     		b	.L24
 314              	.LVL28:
 315              	.L23:
 360:Middlewares/Third_Party/FreeRTOS/Source/timers.c **** 
 316              		.loc 1 360 2 is_stmt 0 discriminator 1 view .LVU73
ARM GAS  C:\Users\randommm\AppData\Local\Temp\ccIzDNWf.s 			page 27


 317 001a 0646     		mov	r6, r0
 318 001c 1546     		mov	r5, r2
 319 001e 1C46     		mov	r4, r3
 320 0020 8846     		mov	r8, r1
 360:Middlewares/Third_Party/FreeRTOS/Source/timers.c **** 
 321              		.loc 1 360 45 is_stmt 1 discriminator 2 view .LVU74
 362:Middlewares/Third_Party/FreeRTOS/Source/timers.c **** 	{
 322              		.loc 1 362 2 discriminator 2 view .LVU75
 362:Middlewares/Third_Party/FreeRTOS/Source/timers.c **** 	{
 323              		.loc 1 362 4 is_stmt 0 discriminator 2 view .LVU76
 324 0022 5FB1     		cbz	r7, .L22
 366:Middlewares/Third_Party/FreeRTOS/Source/timers.c **** 
 325              		.loc 1 366 3 is_stmt 1 view .LVU77
 326 0024 FFF7FEFF 		bl	prvCheckForValidListAndQueue
 327              	.LVL29:
 370:Middlewares/Third_Party/FreeRTOS/Source/timers.c **** 		pxNewTimer->xTimerPeriodInTicks = xTimerPeriodInTicks;
 328              		.loc 1 370 3 view .LVU78
 370:Middlewares/Third_Party/FreeRTOS/Source/timers.c **** 		pxNewTimer->xTimerPeriodInTicks = xTimerPeriodInTicks;
 329              		.loc 1 370 27 is_stmt 0 view .LVU79
 330 0028 3E60     		str	r6, [r7]
 371:Middlewares/Third_Party/FreeRTOS/Source/timers.c **** 		pxNewTimer->uxAutoReload = uxAutoReload;
 331              		.loc 1 371 3 is_stmt 1 view .LVU80
 371:Middlewares/Third_Party/FreeRTOS/Source/timers.c **** 		pxNewTimer->uxAutoReload = uxAutoReload;
 332              		.loc 1 371 35 is_stmt 0 view .LVU81
 333 002a C7F81880 		str	r8, [r7, #24]
 372:Middlewares/Third_Party/FreeRTOS/Source/timers.c **** 		pxNewTimer->pvTimerID = pvTimerID;
 334              		.loc 1 372 3 is_stmt 1 view .LVU82
 372:Middlewares/Third_Party/FreeRTOS/Source/timers.c **** 		pxNewTimer->pvTimerID = pvTimerID;
 335              		.loc 1 372 28 is_stmt 0 view .LVU83
 336 002e FD61     		str	r5, [r7, #28]
 373:Middlewares/Third_Party/FreeRTOS/Source/timers.c **** 		pxNewTimer->pxCallbackFunction = pxCallbackFunction;
 337              		.loc 1 373 3 is_stmt 1 view .LVU84
 373:Middlewares/Third_Party/FreeRTOS/Source/timers.c **** 		pxNewTimer->pxCallbackFunction = pxCallbackFunction;
 338              		.loc 1 373 25 is_stmt 0 view .LVU85
 339 0030 3C62     		str	r4, [r7, #32]
 374:Middlewares/Third_Party/FreeRTOS/Source/timers.c **** 		vListInitialiseItem( &( pxNewTimer->xTimerListItem ) );
 340              		.loc 1 374 3 is_stmt 1 view .LVU86
 374:Middlewares/Third_Party/FreeRTOS/Source/timers.c **** 		vListInitialiseItem( &( pxNewTimer->xTimerListItem ) );
 341              		.loc 1 374 34 is_stmt 0 view .LVU87
 342 0032 069B     		ldr	r3, [sp, #24]
 343 0034 7B62     		str	r3, [r7, #36]
 375:Middlewares/Third_Party/FreeRTOS/Source/timers.c **** 		traceTIMER_CREATE( pxNewTimer );
 344              		.loc 1 375 3 is_stmt 1 view .LVU88
 345 0036 381D     		adds	r0, r7, #4
 346 0038 FFF7FEFF 		bl	vListInitialiseItem
 347              	.LVL30:
 376:Middlewares/Third_Party/FreeRTOS/Source/timers.c **** 	}
 348              		.loc 1 376 34 view .LVU89
 349              	.L22:
 378:Middlewares/Third_Party/FreeRTOS/Source/timers.c **** /*-----------------------------------------------------------*/
 350              		.loc 1 378 1 is_stmt 0 view .LVU90
 351 003c BDE8F081 		pop	{r4, r5, r6, r7, r8, pc}
 378:Middlewares/Third_Party/FreeRTOS/Source/timers.c **** /*-----------------------------------------------------------*/
 352              		.loc 1 378 1 view .LVU91
 353              		.cfi_endproc
 354              	.LFE7:
 356              		.section	.rodata.xTimerCreateTimerTask.str1.4,"aMS",%progbits,1
ARM GAS  C:\Users\randommm\AppData\Local\Temp\ccIzDNWf.s 			page 28


 357              		.align	2
 358              	.LC1:
 359 0000 546D7220 		.ascii	"Tmr Svc\000"
 359      53766300 
 360              		.section	.text.xTimerCreateTimerTask,"ax",%progbits
 361              		.align	1
 362              		.global	xTimerCreateTimerTask
 363              		.syntax unified
 364              		.thumb
 365              		.thumb_func
 366              		.fpu softvfp
 368              	xTimerCreateTimerTask:
 369              	.LFB5:
 224:Middlewares/Third_Party/FreeRTOS/Source/timers.c **** BaseType_t xReturn = pdFAIL;
 370              		.loc 1 224 1 is_stmt 1 view -0
 371              		.cfi_startproc
 372              		@ args = 0, pretend = 0, frame = 0
 373              		@ frame_needed = 0, uses_anonymous_args = 0
 374 0000 00B5     		push	{lr}
 375              	.LCFI3:
 376              		.cfi_def_cfa_offset 4
 377              		.cfi_offset 14, -4
 378 0002 83B0     		sub	sp, sp, #12
 379              	.LCFI4:
 380              		.cfi_def_cfa_offset 16
 225:Middlewares/Third_Party/FreeRTOS/Source/timers.c **** 
 381              		.loc 1 225 1 view .LVU93
 382              	.LVL31:
 231:Middlewares/Third_Party/FreeRTOS/Source/timers.c **** 
 383              		.loc 1 231 2 view .LVU94
 384 0004 FFF7FEFF 		bl	prvCheckForValidListAndQueue
 385              	.LVL32:
 233:Middlewares/Third_Party/FreeRTOS/Source/timers.c **** 	{
 386              		.loc 1 233 2 view .LVU95
 233:Middlewares/Third_Party/FreeRTOS/Source/timers.c **** 	{
 387              		.loc 1 233 18 is_stmt 0 view .LVU96
 388 0008 0D4B     		ldr	r3, .L32
 389 000a 1B68     		ldr	r3, [r3]
 233:Middlewares/Third_Party/FreeRTOS/Source/timers.c **** 	{
 390              		.loc 1 233 4 view .LVU97
 391 000c 5BB1     		cbz	r3, .L28
 257:Middlewares/Third_Party/FreeRTOS/Source/timers.c **** 									configTIMER_SERVICE_TASK_NAME,
 392              		.loc 1 257 4 is_stmt 1 view .LVU98
 257:Middlewares/Third_Party/FreeRTOS/Source/timers.c **** 									configTIMER_SERVICE_TASK_NAME,
 393              		.loc 1 257 14 is_stmt 0 view .LVU99
 394 000e 0D4B     		ldr	r3, .L32+4
 395 0010 0193     		str	r3, [sp, #4]
 396 0012 0223     		movs	r3, #2
 397 0014 0093     		str	r3, [sp]
 398 0016 0023     		movs	r3, #0
 399 0018 4FF48072 		mov	r2, #256
 400 001c 0A49     		ldr	r1, .L32+8
 401 001e 0B48     		ldr	r0, .L32+12
 402 0020 FFF7FEFF 		bl	xTaskCreate
 403              	.LVL33:
 268:Middlewares/Third_Party/FreeRTOS/Source/timers.c **** 	}
 404              		.loc 1 268 27 is_stmt 1 view .LVU100
ARM GAS  C:\Users\randommm\AppData\Local\Temp\ccIzDNWf.s 			page 29


 271:Middlewares/Third_Party/FreeRTOS/Source/timers.c **** 	return xReturn;
 405              		.loc 1 271 2 view .LVU101
 406 0024 40B9     		cbnz	r0, .L27
 407              	.LVL34:
 408              	.L28:
 271:Middlewares/Third_Party/FreeRTOS/Source/timers.c **** 	return xReturn;
 409              		.loc 1 271 2 view .LVU102
 410              	.LBB37:
 411              	.LBI37:
 191:Middlewares/Third_Party/FreeRTOS/Source/portable/GCC/ARM_CM3/portmacro.h **** {
 412              		.loc 2 191 30 view .LVU103
 413              	.LBB38:
 193:Middlewares/Third_Party/FreeRTOS/Source/portable/GCC/ARM_CM3/portmacro.h **** 
 414              		.loc 2 193 1 view .LVU104
 415              		.loc 2 195 2 view .LVU105
 416              		.syntax unified
 417              	@ 195 "Middlewares/Third_Party/FreeRTOS/Source/portable/GCC/ARM_CM3/portmacro.h" 1
 418 0026 4FF01003 			mov r3, #16												
 419 002a 83F31188 		msr basepri, r3											
 420 002e BFF36F8F 		isb														
 421 0032 BFF34F8F 		dsb														
 422              	
 423              	@ 0 "" 2
 424              	.LVL35:
 425              		.thumb
 426              		.syntax unified
 427              	.L30:
 428              		.loc 2 195 2 is_stmt 0 view .LVU106
 429              	.LBE38:
 430              	.LBE37:
 271:Middlewares/Third_Party/FreeRTOS/Source/timers.c **** 	return xReturn;
 431              		.loc 1 271 2 is_stmt 1 discriminator 1 view .LVU107
 271:Middlewares/Third_Party/FreeRTOS/Source/timers.c **** 	return xReturn;
 432              		.loc 1 271 2 discriminator 1 view .LVU108
 271:Middlewares/Third_Party/FreeRTOS/Source/timers.c **** 	return xReturn;
 433              		.loc 1 271 2 discriminator 1 view .LVU109
 434 0036 FEE7     		b	.L30
 435              	.LVL36:
 436              	.L27:
 273:Middlewares/Third_Party/FreeRTOS/Source/timers.c **** /*-----------------------------------------------------------*/
 437              		.loc 1 273 1 is_stmt 0 view .LVU110
 438 0038 03B0     		add	sp, sp, #12
 439              	.LCFI5:
 440              		.cfi_def_cfa_offset 4
 441              		@ sp needed
 442 003a 5DF804FB 		ldr	pc, [sp], #4
 443              	.L33:
 444 003e 00BF     		.align	2
 445              	.L32:
 446 0040 00000000 		.word	.LANCHOR2
 447 0044 00000000 		.word	.LANCHOR5
 448 0048 00000000 		.word	.LC1
 449 004c 00000000 		.word	prvTimerTask
 450              		.cfi_endproc
 451              	.LFE5:
 453              		.section	.text.xTimerCreate,"ax",%progbits
 454              		.align	1
ARM GAS  C:\Users\randommm\AppData\Local\Temp\ccIzDNWf.s 			page 30


 455              		.global	xTimerCreate
 456              		.syntax unified
 457              		.thumb
 458              		.thumb_func
 459              		.fpu softvfp
 461              	xTimerCreate:
 462              	.LVL37:
 463              	.LFB6:
 283:Middlewares/Third_Party/FreeRTOS/Source/timers.c **** 	Timer_t *pxNewTimer;
 464              		.loc 1 283 2 is_stmt 1 view -0
 465              		.cfi_startproc
 466              		@ args = 4, pretend = 0, frame = 0
 467              		@ frame_needed = 0, uses_anonymous_args = 0
 283:Middlewares/Third_Party/FreeRTOS/Source/timers.c **** 	Timer_t *pxNewTimer;
 468              		.loc 1 283 2 is_stmt 0 view .LVU112
 469 0000 2DE9F041 		push	{r4, r5, r6, r7, r8, lr}
 470              	.LCFI6:
 471              		.cfi_def_cfa_offset 24
 472              		.cfi_offset 4, -24
 473              		.cfi_offset 5, -20
 474              		.cfi_offset 6, -16
 475              		.cfi_offset 7, -12
 476              		.cfi_offset 8, -8
 477              		.cfi_offset 14, -4
 478 0004 82B0     		sub	sp, sp, #8
 479              	.LCFI7:
 480              		.cfi_def_cfa_offset 32
 481 0006 0446     		mov	r4, r0
 482 0008 8846     		mov	r8, r1
 483 000a 1546     		mov	r5, r2
 484 000c 1E46     		mov	r6, r3
 284:Middlewares/Third_Party/FreeRTOS/Source/timers.c **** 
 485              		.loc 1 284 2 is_stmt 1 view .LVU113
 286:Middlewares/Third_Party/FreeRTOS/Source/timers.c **** 
 486              		.loc 1 286 3 view .LVU114
 286:Middlewares/Third_Party/FreeRTOS/Source/timers.c **** 
 487              		.loc 1 286 30 is_stmt 0 view .LVU115
 488 000e 2820     		movs	r0, #40
 489              	.LVL38:
 286:Middlewares/Third_Party/FreeRTOS/Source/timers.c **** 
 490              		.loc 1 286 30 view .LVU116
 491 0010 FFF7FEFF 		bl	pvPortMalloc
 492              	.LVL39:
 288:Middlewares/Third_Party/FreeRTOS/Source/timers.c **** 		{
 493              		.loc 1 288 3 is_stmt 1 view .LVU117
 288:Middlewares/Third_Party/FreeRTOS/Source/timers.c **** 		{
 494              		.loc 1 288 5 is_stmt 0 view .LVU118
 495 0014 0746     		mov	r7, r0
 496 0016 40B1     		cbz	r0, .L34
 290:Middlewares/Third_Party/FreeRTOS/Source/timers.c **** 
 497              		.loc 1 290 4 is_stmt 1 view .LVU119
 498 0018 0190     		str	r0, [sp, #4]
 499 001a 089B     		ldr	r3, [sp, #32]
 500 001c 0093     		str	r3, [sp]
 501 001e 3346     		mov	r3, r6
 502 0020 2A46     		mov	r2, r5
 503 0022 4146     		mov	r1, r8
ARM GAS  C:\Users\randommm\AppData\Local\Temp\ccIzDNWf.s 			page 31


 504 0024 2046     		mov	r0, r4
 505              	.LVL40:
 290:Middlewares/Third_Party/FreeRTOS/Source/timers.c **** 
 506              		.loc 1 290 4 is_stmt 0 view .LVU120
 507 0026 FFF7FEFF 		bl	prvInitialiseNewTimer
 508              	.LVL41:
 302:Middlewares/Third_Party/FreeRTOS/Source/timers.c **** 	}
 509              		.loc 1 302 3 is_stmt 1 view .LVU121
 510              	.L34:
 303:Middlewares/Third_Party/FreeRTOS/Source/timers.c **** 
 511              		.loc 1 303 2 is_stmt 0 view .LVU122
 512 002a 3846     		mov	r0, r7
 513 002c 02B0     		add	sp, sp, #8
 514              	.LCFI8:
 515              		.cfi_def_cfa_offset 24
 516              		@ sp needed
 517 002e BDE8F081 		pop	{r4, r5, r6, r7, r8, pc}
 303:Middlewares/Third_Party/FreeRTOS/Source/timers.c **** 
 518              		.loc 1 303 2 view .LVU123
 519              		.cfi_endproc
 520              	.LFE6:
 522              		.section	.text.xTimerGenericCommand,"ax",%progbits
 523              		.align	1
 524              		.global	xTimerGenericCommand
 525              		.syntax unified
 526              		.thumb
 527              		.thumb_func
 528              		.fpu softvfp
 530              	xTimerGenericCommand:
 531              	.LVL42:
 532              	.LFB8:
 382:Middlewares/Third_Party/FreeRTOS/Source/timers.c **** BaseType_t xReturn = pdFAIL;
 533              		.loc 1 382 1 is_stmt 1 view -0
 534              		.cfi_startproc
 535              		@ args = 4, pretend = 0, frame = 16
 536              		@ frame_needed = 0, uses_anonymous_args = 0
 383:Middlewares/Third_Party/FreeRTOS/Source/timers.c **** DaemonTaskMessage_t xMessage;
 537              		.loc 1 383 1 view .LVU125
 384:Middlewares/Third_Party/FreeRTOS/Source/timers.c **** 
 538              		.loc 1 384 1 view .LVU126
 386:Middlewares/Third_Party/FreeRTOS/Source/timers.c **** 
 539              		.loc 1 386 2 view .LVU127
 540 0000 B8B1     		cbz	r0, .L48
 541 0002 9C46     		mov	ip, r3
 542 0004 0346     		mov	r3, r0
 543              	.LVL43:
 386:Middlewares/Third_Party/FreeRTOS/Source/timers.c **** 
 544              		.loc 1 386 24 discriminator 2 view .LVU128
 390:Middlewares/Third_Party/FreeRTOS/Source/timers.c **** 	{
 545              		.loc 1 390 2 discriminator 2 view .LVU129
 390:Middlewares/Third_Party/FreeRTOS/Source/timers.c **** 	{
 546              		.loc 1 390 18 is_stmt 0 discriminator 2 view .LVU130
 547 0006 1848     		ldr	r0, .L50
 548              	.LVL44:
 390:Middlewares/Third_Party/FreeRTOS/Source/timers.c **** 	{
 549              		.loc 1 390 18 discriminator 2 view .LVU131
 550 0008 0068     		ldr	r0, [r0]
ARM GAS  C:\Users\randommm\AppData\Local\Temp\ccIzDNWf.s 			page 32


 390:Middlewares/Third_Party/FreeRTOS/Source/timers.c **** 	{
 551              		.loc 1 390 4 discriminator 2 view .LVU132
 552 000a 58B3     		cbz	r0, .L43
 382:Middlewares/Third_Party/FreeRTOS/Source/timers.c **** BaseType_t xReturn = pdFAIL;
 553              		.loc 1 382 1 view .LVU133
 554 000c 00B5     		push	{lr}
 555              	.LCFI9:
 556              		.cfi_def_cfa_offset 4
 557              		.cfi_offset 14, -4
 558 000e 85B0     		sub	sp, sp, #20
 559              	.LCFI10:
 560              		.cfi_def_cfa_offset 24
 393:Middlewares/Third_Party/FreeRTOS/Source/timers.c **** 		xMessage.u.xTimerParameters.xMessageValue = xOptionalValue;
 561              		.loc 1 393 3 is_stmt 1 view .LVU134
 393:Middlewares/Third_Party/FreeRTOS/Source/timers.c **** 		xMessage.u.xTimerParameters.xMessageValue = xOptionalValue;
 562              		.loc 1 393 23 is_stmt 0 view .LVU135
 563 0010 0091     		str	r1, [sp]
 394:Middlewares/Third_Party/FreeRTOS/Source/timers.c **** 		xMessage.u.xTimerParameters.pxTimer = ( Timer_t * ) xTimer;
 564              		.loc 1 394 3 is_stmt 1 view .LVU136
 394:Middlewares/Third_Party/FreeRTOS/Source/timers.c **** 		xMessage.u.xTimerParameters.pxTimer = ( Timer_t * ) xTimer;
 565              		.loc 1 394 45 is_stmt 0 view .LVU137
 566 0012 0192     		str	r2, [sp, #4]
 395:Middlewares/Third_Party/FreeRTOS/Source/timers.c **** 
 567              		.loc 1 395 3 is_stmt 1 view .LVU138
 395:Middlewares/Third_Party/FreeRTOS/Source/timers.c **** 
 568              		.loc 1 395 39 is_stmt 0 view .LVU139
 569 0014 0293     		str	r3, [sp, #8]
 397:Middlewares/Third_Party/FreeRTOS/Source/timers.c **** 		{
 570              		.loc 1 397 3 is_stmt 1 view .LVU140
 397:Middlewares/Third_Party/FreeRTOS/Source/timers.c **** 		{
 571              		.loc 1 397 5 is_stmt 0 view .LVU141
 572 0016 0529     		cmp	r1, #5
 573 0018 1CDC     		bgt	.L41
 399:Middlewares/Third_Party/FreeRTOS/Source/timers.c **** 			{
 574              		.loc 1 399 4 is_stmt 1 view .LVU142
 399:Middlewares/Third_Party/FreeRTOS/Source/timers.c **** 			{
 575              		.loc 1 399 8 is_stmt 0 view .LVU143
 576 001a FFF7FEFF 		bl	xTaskGetSchedulerState
 577              	.LVL45:
 399:Middlewares/Third_Party/FreeRTOS/Source/timers.c **** 			{
 578              		.loc 1 399 6 view .LVU144
 579 001e 0228     		cmp	r0, #2
 580 0020 10D0     		beq	.L49
 405:Middlewares/Third_Party/FreeRTOS/Source/timers.c **** 			}
 581              		.loc 1 405 5 is_stmt 1 view .LVU145
 405:Middlewares/Third_Party/FreeRTOS/Source/timers.c **** 			}
 582              		.loc 1 405 15 is_stmt 0 view .LVU146
 583 0022 0023     		movs	r3, #0
 584 0024 1A46     		mov	r2, r3
 585 0026 6946     		mov	r1, sp
 586 0028 0F48     		ldr	r0, .L50
 587 002a 0068     		ldr	r0, [r0]
 588 002c FFF7FEFF 		bl	xQueueGenericSend
 589              	.LVL46:
 405:Middlewares/Third_Party/FreeRTOS/Source/timers.c **** 			}
 590              		.loc 1 405 15 view .LVU147
 591 0030 15E0     		b	.L37
ARM GAS  C:\Users\randommm\AppData\Local\Temp\ccIzDNWf.s 			page 33


 592              	.LVL47:
 593              	.L48:
 594              	.LCFI11:
 595              		.cfi_def_cfa_offset 0
 596              		.cfi_restore 14
 386:Middlewares/Third_Party/FreeRTOS/Source/timers.c **** 
 597              		.loc 1 386 2 is_stmt 1 view .LVU148
 598              	.LBB39:
 599              	.LBI39:
 191:Middlewares/Third_Party/FreeRTOS/Source/portable/GCC/ARM_CM3/portmacro.h **** {
 600              		.loc 2 191 30 view .LVU149
 601              	.LBB40:
 193:Middlewares/Third_Party/FreeRTOS/Source/portable/GCC/ARM_CM3/portmacro.h **** 
 602              		.loc 2 193 1 view .LVU150
 603              		.loc 2 195 2 view .LVU151
 604              		.syntax unified
 605              	@ 195 "Middlewares/Third_Party/FreeRTOS/Source/portable/GCC/ARM_CM3/portmacro.h" 1
 606 0032 4FF01003 			mov r3, #16												
 607 0036 83F31188 		msr basepri, r3											
 608 003a BFF36F8F 		isb														
 609 003e BFF34F8F 		dsb														
 610              	
 611              	@ 0 "" 2
 612              	.LVL48:
 613              		.thumb
 614              		.syntax unified
 615              	.L39:
 616              		.loc 2 195 2 is_stmt 0 view .LVU152
 617              	.LBE40:
 618              	.LBE39:
 386:Middlewares/Third_Party/FreeRTOS/Source/timers.c **** 
 619              		.loc 1 386 2 is_stmt 1 discriminator 1 view .LVU153
 386:Middlewares/Third_Party/FreeRTOS/Source/timers.c **** 
 620              		.loc 1 386 2 discriminator 1 view .LVU154
 386:Middlewares/Third_Party/FreeRTOS/Source/timers.c **** 
 621              		.loc 1 386 2 discriminator 1 view .LVU155
 622 0042 FEE7     		b	.L39
 623              	.LVL49:
 624              	.L49:
 625              	.LCFI12:
 626              		.cfi_def_cfa_offset 24
 627              		.cfi_offset 14, -4
 401:Middlewares/Third_Party/FreeRTOS/Source/timers.c **** 			}
 628              		.loc 1 401 5 view .LVU156
 401:Middlewares/Third_Party/FreeRTOS/Source/timers.c **** 			}
 629              		.loc 1 401 15 is_stmt 0 view .LVU157
 630 0044 0023     		movs	r3, #0
 631 0046 069A     		ldr	r2, [sp, #24]
 632 0048 6946     		mov	r1, sp
 633 004a 0748     		ldr	r0, .L50
 634 004c 0068     		ldr	r0, [r0]
 635 004e FFF7FEFF 		bl	xQueueGenericSend
 636              	.LVL50:
 401:Middlewares/Third_Party/FreeRTOS/Source/timers.c **** 			}
 637              		.loc 1 401 15 view .LVU158
 638 0052 04E0     		b	.L37
 639              	.LVL51:
ARM GAS  C:\Users\randommm\AppData\Local\Temp\ccIzDNWf.s 			page 34


 640              	.L41:
 410:Middlewares/Third_Party/FreeRTOS/Source/timers.c **** 		}
 641              		.loc 1 410 4 is_stmt 1 view .LVU159
 410:Middlewares/Third_Party/FreeRTOS/Source/timers.c **** 		}
 642              		.loc 1 410 14 is_stmt 0 view .LVU160
 643 0054 0023     		movs	r3, #0
 644              	.LVL52:
 410:Middlewares/Third_Party/FreeRTOS/Source/timers.c **** 		}
 645              		.loc 1 410 14 view .LVU161
 646 0056 6246     		mov	r2, ip
 647              	.LVL53:
 410:Middlewares/Third_Party/FreeRTOS/Source/timers.c **** 		}
 648              		.loc 1 410 14 view .LVU162
 649 0058 6946     		mov	r1, sp
 650              	.LVL54:
 410:Middlewares/Third_Party/FreeRTOS/Source/timers.c **** 		}
 651              		.loc 1 410 14 view .LVU163
 652 005a FFF7FEFF 		bl	xQueueGenericSendFromISR
 653              	.LVL55:
 654              	.L37:
 421:Middlewares/Third_Party/FreeRTOS/Source/timers.c **** /*-----------------------------------------------------------*/
 655              		.loc 1 421 1 view .LVU164
 656 005e 05B0     		add	sp, sp, #20
 657              	.LCFI13:
 658              		.cfi_def_cfa_offset 4
 659              		@ sp needed
 660 0060 5DF804FB 		ldr	pc, [sp], #4
 661              	.LVL56:
 662              	.L43:
 663              	.LCFI14:
 664              		.cfi_def_cfa_offset 0
 665              		.cfi_restore 14
 383:Middlewares/Third_Party/FreeRTOS/Source/timers.c **** DaemonTaskMessage_t xMessage;
 666              		.loc 1 383 12 view .LVU165
 667 0064 0020     		movs	r0, #0
 417:Middlewares/Third_Party/FreeRTOS/Source/timers.c **** 	}
 668              		.loc 1 417 27 is_stmt 1 view .LVU166
 420:Middlewares/Third_Party/FreeRTOS/Source/timers.c **** }
 669              		.loc 1 420 2 view .LVU167
 421:Middlewares/Third_Party/FreeRTOS/Source/timers.c **** /*-----------------------------------------------------------*/
 670              		.loc 1 421 1 is_stmt 0 view .LVU168
 671 0066 7047     		bx	lr
 672              	.L51:
 673              		.align	2
 674              	.L50:
 675 0068 00000000 		.word	.LANCHOR2
 676              		.cfi_endproc
 677              	.LFE8:
 679              		.section	.text.prvSwitchTimerLists,"ax",%progbits
 680              		.align	1
 681              		.syntax unified
 682              		.thumb
 683              		.thumb_func
 684              		.fpu softvfp
 686              	prvSwitchTimerLists:
 687              	.LFB20:
 836:Middlewares/Third_Party/FreeRTOS/Source/timers.c **** TickType_t xNextExpireTime, xReloadTime;
ARM GAS  C:\Users\randommm\AppData\Local\Temp\ccIzDNWf.s 			page 35


 688              		.loc 1 836 1 is_stmt 1 view -0
 689              		.cfi_startproc
 690              		@ args = 0, pretend = 0, frame = 0
 691              		@ frame_needed = 0, uses_anonymous_args = 0
 692 0000 70B5     		push	{r4, r5, r6, lr}
 693              	.LCFI15:
 694              		.cfi_def_cfa_offset 16
 695              		.cfi_offset 4, -16
 696              		.cfi_offset 5, -12
 697              		.cfi_offset 6, -8
 698              		.cfi_offset 14, -4
 699 0002 82B0     		sub	sp, sp, #8
 700              	.LCFI16:
 701              		.cfi_def_cfa_offset 24
 837:Middlewares/Third_Party/FreeRTOS/Source/timers.c **** List_t *pxTemp;
 702              		.loc 1 837 1 view .LVU170
 838:Middlewares/Third_Party/FreeRTOS/Source/timers.c **** Timer_t *pxTimer;
 703              		.loc 1 838 1 view .LVU171
 839:Middlewares/Third_Party/FreeRTOS/Source/timers.c **** BaseType_t xResult;
 704              		.loc 1 839 1 view .LVU172
 840:Middlewares/Third_Party/FreeRTOS/Source/timers.c **** 
 705              		.loc 1 840 1 view .LVU173
 846:Middlewares/Third_Party/FreeRTOS/Source/timers.c **** 	{
 706              		.loc 1 846 2 view .LVU174
 707              	.L54:
 884:Middlewares/Third_Party/FreeRTOS/Source/timers.c **** 		}
 708              		.loc 1 884 28 view .LVU175
 846:Middlewares/Third_Party/FreeRTOS/Source/timers.c **** 	{
 709              		.loc 1 846 7 view .LVU176
 846:Middlewares/Third_Party/FreeRTOS/Source/timers.c **** 	{
 710              		.loc 1 846 9 is_stmt 0 view .LVU177
 711 0004 1A4B     		ldr	r3, .L61
 712 0006 1B68     		ldr	r3, [r3]
 713 0008 1A68     		ldr	r2, [r3]
 846:Middlewares/Third_Party/FreeRTOS/Source/timers.c **** 	{
 714              		.loc 1 846 7 view .LVU178
 715 000a 52B3     		cbz	r2, .L60
 848:Middlewares/Third_Party/FreeRTOS/Source/timers.c **** 
 716              		.loc 1 848 3 is_stmt 1 view .LVU179
 848:Middlewares/Third_Party/FreeRTOS/Source/timers.c **** 
 717              		.loc 1 848 21 is_stmt 0 view .LVU180
 718 000c DB68     		ldr	r3, [r3, #12]
 848:Middlewares/Third_Party/FreeRTOS/Source/timers.c **** 
 719              		.loc 1 848 19 view .LVU181
 720 000e 1E68     		ldr	r6, [r3]
 721              	.LVL57:
 851:Middlewares/Third_Party/FreeRTOS/Source/timers.c **** 		( void ) uxListRemove( &( pxTimer->xTimerListItem ) );
 722              		.loc 1 851 3 is_stmt 1 view .LVU182
 851:Middlewares/Third_Party/FreeRTOS/Source/timers.c **** 		( void ) uxListRemove( &( pxTimer->xTimerListItem ) );
 723              		.loc 1 851 11 is_stmt 0 view .LVU183
 724 0010 DC68     		ldr	r4, [r3, #12]
 725              	.LVL58:
 852:Middlewares/Third_Party/FreeRTOS/Source/timers.c **** 		traceTIMER_EXPIRED( pxTimer );
 726              		.loc 1 852 3 is_stmt 1 view .LVU184
 852:Middlewares/Third_Party/FreeRTOS/Source/timers.c **** 		traceTIMER_EXPIRED( pxTimer );
 727              		.loc 1 852 12 is_stmt 0 view .LVU185
 728 0012 251D     		adds	r5, r4, #4
ARM GAS  C:\Users\randommm\AppData\Local\Temp\ccIzDNWf.s 			page 36


 729 0014 2846     		mov	r0, r5
 730 0016 FFF7FEFF 		bl	uxListRemove
 731              	.LVL59:
 853:Middlewares/Third_Party/FreeRTOS/Source/timers.c **** 
 732              		.loc 1 853 32 is_stmt 1 view .LVU186
 858:Middlewares/Third_Party/FreeRTOS/Source/timers.c **** 
 733              		.loc 1 858 3 view .LVU187
 858:Middlewares/Third_Party/FreeRTOS/Source/timers.c **** 
 734              		.loc 1 858 10 is_stmt 0 view .LVU188
 735 001a 636A     		ldr	r3, [r4, #36]
 858:Middlewares/Third_Party/FreeRTOS/Source/timers.c **** 
 736              		.loc 1 858 3 view .LVU189
 737 001c 2046     		mov	r0, r4
 738 001e 9847     		blx	r3
 739              	.LVL60:
 860:Middlewares/Third_Party/FreeRTOS/Source/timers.c **** 		{
 740              		.loc 1 860 3 is_stmt 1 view .LVU190
 860:Middlewares/Third_Party/FreeRTOS/Source/timers.c **** 		{
 741              		.loc 1 860 14 is_stmt 0 view .LVU191
 742 0020 E369     		ldr	r3, [r4, #28]
 860:Middlewares/Third_Party/FreeRTOS/Source/timers.c **** 		{
 743              		.loc 1 860 5 view .LVU192
 744 0022 012B     		cmp	r3, #1
 745 0024 EED1     		bne	.L54
 868:Middlewares/Third_Party/FreeRTOS/Source/timers.c **** 			if( xReloadTime > xNextExpireTime )
 746              		.loc 1 868 4 is_stmt 1 view .LVU193
 868:Middlewares/Third_Party/FreeRTOS/Source/timers.c **** 			if( xReloadTime > xNextExpireTime )
 747              		.loc 1 868 45 is_stmt 0 view .LVU194
 748 0026 A369     		ldr	r3, [r4, #24]
 868:Middlewares/Third_Party/FreeRTOS/Source/timers.c **** 			if( xReloadTime > xNextExpireTime )
 749              		.loc 1 868 16 view .LVU195
 750 0028 3344     		add	r3, r3, r6
 751              	.LVL61:
 869:Middlewares/Third_Party/FreeRTOS/Source/timers.c **** 			{
 752              		.loc 1 869 4 is_stmt 1 view .LVU196
 869:Middlewares/Third_Party/FreeRTOS/Source/timers.c **** 			{
 753              		.loc 1 869 6 is_stmt 0 view .LVU197
 754 002a 9E42     		cmp	r6, r3
 755 002c 07D2     		bcs	.L55
 871:Middlewares/Third_Party/FreeRTOS/Source/timers.c **** 				listSET_LIST_ITEM_OWNER( &( pxTimer->xTimerListItem ), pxTimer );
 756              		.loc 1 871 5 is_stmt 1 view .LVU198
 757 002e 6360     		str	r3, [r4, #4]
 872:Middlewares/Third_Party/FreeRTOS/Source/timers.c **** 				vListInsert( pxCurrentTimerList, &( pxTimer->xTimerListItem ) );
 758              		.loc 1 872 5 view .LVU199
 759 0030 2461     		str	r4, [r4, #16]
 873:Middlewares/Third_Party/FreeRTOS/Source/timers.c **** 			}
 760              		.loc 1 873 5 view .LVU200
 761 0032 2946     		mov	r1, r5
 762 0034 0E4B     		ldr	r3, .L61
 763              	.LVL62:
 873:Middlewares/Third_Party/FreeRTOS/Source/timers.c **** 			}
 764              		.loc 1 873 5 is_stmt 0 view .LVU201
 765 0036 1868     		ldr	r0, [r3]
 766 0038 FFF7FEFF 		bl	vListInsert
 767              	.LVL63:
 873:Middlewares/Third_Party/FreeRTOS/Source/timers.c **** 			}
 768              		.loc 1 873 5 view .LVU202
ARM GAS  C:\Users\randommm\AppData\Local\Temp\ccIzDNWf.s 			page 37


 769 003c E2E7     		b	.L54
 770              	.LVL64:
 771              	.L55:
 877:Middlewares/Third_Party/FreeRTOS/Source/timers.c **** 				configASSERT( xResult );
 772              		.loc 1 877 5 is_stmt 1 view .LVU203
 877:Middlewares/Third_Party/FreeRTOS/Source/timers.c **** 				configASSERT( xResult );
 773              		.loc 1 877 15 is_stmt 0 view .LVU204
 774 003e 0021     		movs	r1, #0
 775 0040 0091     		str	r1, [sp]
 776 0042 0B46     		mov	r3, r1
 777              	.LVL65:
 877:Middlewares/Third_Party/FreeRTOS/Source/timers.c **** 				configASSERT( xResult );
 778              		.loc 1 877 15 view .LVU205
 779 0044 3246     		mov	r2, r6
 780 0046 2046     		mov	r0, r4
 781 0048 FFF7FEFF 		bl	xTimerGenericCommand
 782              	.LVL66:
 878:Middlewares/Third_Party/FreeRTOS/Source/timers.c **** 				( void ) xResult;
 783              		.loc 1 878 5 is_stmt 1 view .LVU206
 784 004c 0028     		cmp	r0, #0
 785 004e D9D1     		bne	.L54
 878:Middlewares/Third_Party/FreeRTOS/Source/timers.c **** 				( void ) xResult;
 786              		.loc 1 878 5 view .LVU207
 787              	.LBB41:
 788              	.LBI41:
 191:Middlewares/Third_Party/FreeRTOS/Source/portable/GCC/ARM_CM3/portmacro.h **** {
 789              		.loc 2 191 30 view .LVU208
 790              	.LBB42:
 193:Middlewares/Third_Party/FreeRTOS/Source/portable/GCC/ARM_CM3/portmacro.h **** 
 791              		.loc 2 193 1 view .LVU209
 792              		.loc 2 195 2 view .LVU210
 793              		.syntax unified
 794              	@ 195 "Middlewares/Third_Party/FreeRTOS/Source/portable/GCC/ARM_CM3/portmacro.h" 1
 795 0050 4FF01003 			mov r3, #16												
 796 0054 83F31188 		msr basepri, r3											
 797 0058 BFF36F8F 		isb														
 798 005c BFF34F8F 		dsb														
 799              	
 800              	@ 0 "" 2
 801              	.LVL67:
 802              		.thumb
 803              		.syntax unified
 804              	.L57:
 805              		.loc 2 195 2 is_stmt 0 view .LVU211
 806              	.LBE42:
 807              	.LBE41:
 878:Middlewares/Third_Party/FreeRTOS/Source/timers.c **** 				( void ) xResult;
 808              		.loc 1 878 5 is_stmt 1 discriminator 1 view .LVU212
 878:Middlewares/Third_Party/FreeRTOS/Source/timers.c **** 				( void ) xResult;
 809              		.loc 1 878 5 discriminator 1 view .LVU213
 878:Middlewares/Third_Party/FreeRTOS/Source/timers.c **** 				( void ) xResult;
 810              		.loc 1 878 5 discriminator 1 view .LVU214
 811 0060 FEE7     		b	.L57
 812              	.LVL68:
 813              	.L60:
 888:Middlewares/Third_Party/FreeRTOS/Source/timers.c **** 	pxCurrentTimerList = pxOverflowTimerList;
 814              		.loc 1 888 2 view .LVU215
ARM GAS  C:\Users\randommm\AppData\Local\Temp\ccIzDNWf.s 			page 38


 889:Middlewares/Third_Party/FreeRTOS/Source/timers.c **** 	pxOverflowTimerList = pxTemp;
 815              		.loc 1 889 2 view .LVU216
 889:Middlewares/Third_Party/FreeRTOS/Source/timers.c **** 	pxOverflowTimerList = pxTemp;
 816              		.loc 1 889 21 is_stmt 0 view .LVU217
 817 0062 044A     		ldr	r2, .L61+4
 818 0064 1068     		ldr	r0, [r2]
 819 0066 0249     		ldr	r1, .L61
 820 0068 0860     		str	r0, [r1]
 890:Middlewares/Third_Party/FreeRTOS/Source/timers.c **** }
 821              		.loc 1 890 2 is_stmt 1 view .LVU218
 890:Middlewares/Third_Party/FreeRTOS/Source/timers.c **** }
 822              		.loc 1 890 22 is_stmt 0 view .LVU219
 823 006a 1360     		str	r3, [r2]
 891:Middlewares/Third_Party/FreeRTOS/Source/timers.c **** /*-----------------------------------------------------------*/
 824              		.loc 1 891 1 view .LVU220
 825 006c 02B0     		add	sp, sp, #8
 826              	.LCFI17:
 827              		.cfi_def_cfa_offset 16
 828              		@ sp needed
 829 006e 70BD     		pop	{r4, r5, r6, pc}
 830              	.L62:
 831              		.align	2
 832              	.L61:
 833 0070 00000000 		.word	.LANCHOR0
 834 0074 00000000 		.word	.LANCHOR1
 835              		.cfi_endproc
 836              	.LFE20:
 838              		.section	.text.prvSampleTimeNow,"ax",%progbits
 839              		.align	1
 840              		.syntax unified
 841              		.thumb
 842              		.thumb_func
 843              		.fpu softvfp
 845              	prvSampleTimeNow:
 846              	.LVL69:
 847              	.LFB17:
 625:Middlewares/Third_Party/FreeRTOS/Source/timers.c **** TickType_t xTimeNow;
 848              		.loc 1 625 1 is_stmt 1 view -0
 849              		.cfi_startproc
 850              		@ args = 0, pretend = 0, frame = 0
 851              		@ frame_needed = 0, uses_anonymous_args = 0
 625:Middlewares/Third_Party/FreeRTOS/Source/timers.c **** TickType_t xTimeNow;
 852              		.loc 1 625 1 is_stmt 0 view .LVU222
 853 0000 38B5     		push	{r3, r4, r5, lr}
 854              	.LCFI18:
 855              		.cfi_def_cfa_offset 16
 856              		.cfi_offset 3, -16
 857              		.cfi_offset 4, -12
 858              		.cfi_offset 5, -8
 859              		.cfi_offset 14, -4
 860 0002 0546     		mov	r5, r0
 626:Middlewares/Third_Party/FreeRTOS/Source/timers.c **** PRIVILEGED_DATA static TickType_t xLastTime = ( TickType_t ) 0U; /*lint !e956 Variable is only acce
 861              		.loc 1 626 1 is_stmt 1 view .LVU223
 627:Middlewares/Third_Party/FreeRTOS/Source/timers.c **** 
 862              		.loc 1 627 17 view .LVU224
 629:Middlewares/Third_Party/FreeRTOS/Source/timers.c **** 
 863              		.loc 1 629 2 view .LVU225
ARM GAS  C:\Users\randommm\AppData\Local\Temp\ccIzDNWf.s 			page 39


 629:Middlewares/Third_Party/FreeRTOS/Source/timers.c **** 
 864              		.loc 1 629 13 is_stmt 0 view .LVU226
 865 0004 FFF7FEFF 		bl	xTaskGetTickCount
 866              	.LVL70:
 629:Middlewares/Third_Party/FreeRTOS/Source/timers.c **** 
 867              		.loc 1 629 13 view .LVU227
 868 0008 0446     		mov	r4, r0
 869              	.LVL71:
 631:Middlewares/Third_Party/FreeRTOS/Source/timers.c **** 	{
 870              		.loc 1 631 2 is_stmt 1 view .LVU228
 631:Middlewares/Third_Party/FreeRTOS/Source/timers.c **** 	{
 871              		.loc 1 631 15 is_stmt 0 view .LVU229
 872 000a 074B     		ldr	r3, .L68
 873 000c 1B68     		ldr	r3, [r3]
 631:Middlewares/Third_Party/FreeRTOS/Source/timers.c **** 	{
 874              		.loc 1 631 4 view .LVU230
 875 000e 8342     		cmp	r3, r0
 876 0010 05D8     		bhi	.L67
 638:Middlewares/Third_Party/FreeRTOS/Source/timers.c **** 	}
 877              		.loc 1 638 3 is_stmt 1 view .LVU231
 638:Middlewares/Third_Party/FreeRTOS/Source/timers.c **** 	}
 878              		.loc 1 638 29 is_stmt 0 view .LVU232
 879 0012 0023     		movs	r3, #0
 880 0014 2B60     		str	r3, [r5]
 881              	.LVL72:
 882              	.L65:
 641:Middlewares/Third_Party/FreeRTOS/Source/timers.c **** 
 883              		.loc 1 641 2 is_stmt 1 view .LVU233
 641:Middlewares/Third_Party/FreeRTOS/Source/timers.c **** 
 884              		.loc 1 641 12 is_stmt 0 view .LVU234
 885 0016 044B     		ldr	r3, .L68
 886 0018 1C60     		str	r4, [r3]
 643:Middlewares/Third_Party/FreeRTOS/Source/timers.c **** }
 887              		.loc 1 643 2 is_stmt 1 view .LVU235
 644:Middlewares/Third_Party/FreeRTOS/Source/timers.c **** /*-----------------------------------------------------------*/
 888              		.loc 1 644 1 is_stmt 0 view .LVU236
 889 001a 2046     		mov	r0, r4
 890 001c 38BD     		pop	{r3, r4, r5, pc}
 891              	.LVL73:
 892              	.L67:
 633:Middlewares/Third_Party/FreeRTOS/Source/timers.c **** 		*pxTimerListsWereSwitched = pdTRUE;
 893              		.loc 1 633 3 is_stmt 1 view .LVU237
 894 001e FFF7FEFF 		bl	prvSwitchTimerLists
 895              	.LVL74:
 634:Middlewares/Third_Party/FreeRTOS/Source/timers.c **** 	}
 896              		.loc 1 634 3 view .LVU238
 634:Middlewares/Third_Party/FreeRTOS/Source/timers.c **** 	}
 897              		.loc 1 634 29 is_stmt 0 view .LVU239
 898 0022 0123     		movs	r3, #1
 899 0024 2B60     		str	r3, [r5]
 900 0026 F6E7     		b	.L65
 901              	.L69:
 902              		.align	2
 903              	.L68:
 904 0028 00000000 		.word	.LANCHOR6
 905              		.cfi_endproc
 906              	.LFE17:
ARM GAS  C:\Users\randommm\AppData\Local\Temp\ccIzDNWf.s 			page 40


 908              		.section	.text.prvProcessExpiredTimer,"ax",%progbits
 909              		.align	1
 910              		.syntax unified
 911              		.thumb
 912              		.thumb_func
 913              		.fpu softvfp
 915              	prvProcessExpiredTimer:
 916              	.LVL75:
 917              	.LFB13:
 463:Middlewares/Third_Party/FreeRTOS/Source/timers.c **** BaseType_t xResult;
 918              		.loc 1 463 1 is_stmt 1 view -0
 919              		.cfi_startproc
 920              		@ args = 0, pretend = 0, frame = 0
 921              		@ frame_needed = 0, uses_anonymous_args = 0
 463:Middlewares/Third_Party/FreeRTOS/Source/timers.c **** BaseType_t xResult;
 922              		.loc 1 463 1 is_stmt 0 view .LVU241
 923 0000 70B5     		push	{r4, r5, r6, lr}
 924              	.LCFI19:
 925              		.cfi_def_cfa_offset 16
 926              		.cfi_offset 4, -16
 927              		.cfi_offset 5, -12
 928              		.cfi_offset 6, -8
 929              		.cfi_offset 14, -4
 930 0002 82B0     		sub	sp, sp, #8
 931              	.LCFI20:
 932              		.cfi_def_cfa_offset 24
 933 0004 0646     		mov	r6, r0
 934 0006 0D46     		mov	r5, r1
 464:Middlewares/Third_Party/FreeRTOS/Source/timers.c **** Timer_t * const pxTimer = ( Timer_t * ) listGET_OWNER_OF_HEAD_ENTRY( pxCurrentTimerList );
 935              		.loc 1 464 1 is_stmt 1 view .LVU242
 465:Middlewares/Third_Party/FreeRTOS/Source/timers.c **** 
 936              		.loc 1 465 1 view .LVU243
 465:Middlewares/Third_Party/FreeRTOS/Source/timers.c **** 
 937              		.loc 1 465 41 is_stmt 0 view .LVU244
 938 0008 1449     		ldr	r1, .L75
 939              	.LVL76:
 465:Middlewares/Third_Party/FreeRTOS/Source/timers.c **** 
 940              		.loc 1 465 41 view .LVU245
 941 000a 0968     		ldr	r1, [r1]
 942 000c C968     		ldr	r1, [r1, #12]
 465:Middlewares/Third_Party/FreeRTOS/Source/timers.c **** 
 943              		.loc 1 465 17 view .LVU246
 944 000e CC68     		ldr	r4, [r1, #12]
 945              	.LVL77:
 469:Middlewares/Third_Party/FreeRTOS/Source/timers.c **** 	traceTIMER_EXPIRED( pxTimer );
 946              		.loc 1 469 2 is_stmt 1 view .LVU247
 469:Middlewares/Third_Party/FreeRTOS/Source/timers.c **** 	traceTIMER_EXPIRED( pxTimer );
 947              		.loc 1 469 11 is_stmt 0 view .LVU248
 948 0010 201D     		adds	r0, r4, #4
 949              	.LVL78:
 469:Middlewares/Third_Party/FreeRTOS/Source/timers.c **** 	traceTIMER_EXPIRED( pxTimer );
 950              		.loc 1 469 11 view .LVU249
 951 0012 FFF7FEFF 		bl	uxListRemove
 952              	.LVL79:
 470:Middlewares/Third_Party/FreeRTOS/Source/timers.c **** 
 953              		.loc 1 470 31 is_stmt 1 view .LVU250
 474:Middlewares/Third_Party/FreeRTOS/Source/timers.c **** 	{
ARM GAS  C:\Users\randommm\AppData\Local\Temp\ccIzDNWf.s 			page 41


 954              		.loc 1 474 2 view .LVU251
 474:Middlewares/Third_Party/FreeRTOS/Source/timers.c **** 	{
 955              		.loc 1 474 13 is_stmt 0 view .LVU252
 956 0016 E169     		ldr	r1, [r4, #28]
 474:Middlewares/Third_Party/FreeRTOS/Source/timers.c **** 	{
 957              		.loc 1 474 4 view .LVU253
 958 0018 0129     		cmp	r1, #1
 959 001a 04D0     		beq	.L74
 960              	.L71:
 494:Middlewares/Third_Party/FreeRTOS/Source/timers.c **** 	}
 961              		.loc 1 494 27 is_stmt 1 view .LVU254
 498:Middlewares/Third_Party/FreeRTOS/Source/timers.c **** }
 962              		.loc 1 498 2 view .LVU255
 498:Middlewares/Third_Party/FreeRTOS/Source/timers.c **** }
 963              		.loc 1 498 9 is_stmt 0 view .LVU256
 964 001c 636A     		ldr	r3, [r4, #36]
 498:Middlewares/Third_Party/FreeRTOS/Source/timers.c **** }
 965              		.loc 1 498 2 view .LVU257
 966 001e 2046     		mov	r0, r4
 967 0020 9847     		blx	r3
 968              	.LVL80:
 499:Middlewares/Third_Party/FreeRTOS/Source/timers.c **** /*-----------------------------------------------------------*/
 969              		.loc 1 499 1 view .LVU258
 970 0022 02B0     		add	sp, sp, #8
 971              	.LCFI21:
 972              		.cfi_remember_state
 973              		.cfi_def_cfa_offset 16
 974              		@ sp needed
 975 0024 70BD     		pop	{r4, r5, r6, pc}
 976              	.LVL81:
 977              	.L74:
 978              	.LCFI22:
 979              		.cfi_restore_state
 479:Middlewares/Third_Party/FreeRTOS/Source/timers.c **** 		{
 980              		.loc 1 479 3 is_stmt 1 view .LVU259
 479:Middlewares/Third_Party/FreeRTOS/Source/timers.c **** 		{
 981              		.loc 1 479 71 is_stmt 0 view .LVU260
 982 0026 A169     		ldr	r1, [r4, #24]
 479:Middlewares/Third_Party/FreeRTOS/Source/timers.c **** 		{
 983              		.loc 1 479 7 view .LVU261
 984 0028 3346     		mov	r3, r6
 985 002a 2A46     		mov	r2, r5
 986 002c 3144     		add	r1, r1, r6
 987 002e 2046     		mov	r0, r4
 988 0030 FFF7FEFF 		bl	prvInsertTimerInActiveList
 989              	.LVL82:
 479:Middlewares/Third_Party/FreeRTOS/Source/timers.c **** 		{
 990              		.loc 1 479 5 view .LVU262
 991 0034 0028     		cmp	r0, #0
 992 0036 F1D0     		beq	.L71
 483:Middlewares/Third_Party/FreeRTOS/Source/timers.c **** 			configASSERT( xResult );
 993              		.loc 1 483 4 is_stmt 1 view .LVU263
 483:Middlewares/Third_Party/FreeRTOS/Source/timers.c **** 			configASSERT( xResult );
 994              		.loc 1 483 14 is_stmt 0 view .LVU264
 995 0038 0021     		movs	r1, #0
 996 003a 0091     		str	r1, [sp]
 997 003c 0B46     		mov	r3, r1
ARM GAS  C:\Users\randommm\AppData\Local\Temp\ccIzDNWf.s 			page 42


 998 003e 3246     		mov	r2, r6
 999 0040 2046     		mov	r0, r4
 1000 0042 FFF7FEFF 		bl	xTimerGenericCommand
 1001              	.LVL83:
 484:Middlewares/Third_Party/FreeRTOS/Source/timers.c **** 			( void ) xResult;
 1002              		.loc 1 484 4 is_stmt 1 view .LVU265
 1003 0046 0028     		cmp	r0, #0
 1004 0048 E8D1     		bne	.L71
 484:Middlewares/Third_Party/FreeRTOS/Source/timers.c **** 			( void ) xResult;
 1005              		.loc 1 484 4 view .LVU266
 1006              	.LBB43:
 1007              	.LBI43:
 191:Middlewares/Third_Party/FreeRTOS/Source/portable/GCC/ARM_CM3/portmacro.h **** {
 1008              		.loc 2 191 30 view .LVU267
 1009              	.LBB44:
 193:Middlewares/Third_Party/FreeRTOS/Source/portable/GCC/ARM_CM3/portmacro.h **** 
 1010              		.loc 2 193 1 view .LVU268
 1011              		.loc 2 195 2 view .LVU269
 1012              		.syntax unified
 1013              	@ 195 "Middlewares/Third_Party/FreeRTOS/Source/portable/GCC/ARM_CM3/portmacro.h" 1
 1014 004a 4FF01003 			mov r3, #16												
 1015 004e 83F31188 		msr basepri, r3											
 1016 0052 BFF36F8F 		isb														
 1017 0056 BFF34F8F 		dsb														
 1018              	
 1019              	@ 0 "" 2
 1020              	.LVL84:
 1021              		.thumb
 1022              		.syntax unified
 1023              	.L72:
 1024              		.loc 2 195 2 is_stmt 0 view .LVU270
 1025              	.LBE44:
 1026              	.LBE43:
 484:Middlewares/Third_Party/FreeRTOS/Source/timers.c **** 			( void ) xResult;
 1027              		.loc 1 484 4 is_stmt 1 discriminator 1 view .LVU271
 484:Middlewares/Third_Party/FreeRTOS/Source/timers.c **** 			( void ) xResult;
 1028              		.loc 1 484 4 discriminator 1 view .LVU272
 484:Middlewares/Third_Party/FreeRTOS/Source/timers.c **** 			( void ) xResult;
 1029              		.loc 1 484 4 discriminator 1 view .LVU273
 1030 005a FEE7     		b	.L72
 1031              	.L76:
 1032              		.align	2
 1033              	.L75:
 1034 005c 00000000 		.word	.LANCHOR0
 1035              		.cfi_endproc
 1036              	.LFE13:
 1038              		.section	.text.prvProcessTimerOrBlockTask,"ax",%progbits
 1039              		.align	1
 1040              		.syntax unified
 1041              		.thumb
 1042              		.thumb_func
 1043              		.fpu softvfp
 1045              	prvProcessTimerOrBlockTask:
 1046              	.LVL85:
 1047              	.LFB15:
 539:Middlewares/Third_Party/FreeRTOS/Source/timers.c **** TickType_t xTimeNow;
 1048              		.loc 1 539 1 view -0
ARM GAS  C:\Users\randommm\AppData\Local\Temp\ccIzDNWf.s 			page 43


 1049              		.cfi_startproc
 1050              		@ args = 0, pretend = 0, frame = 8
 1051              		@ frame_needed = 0, uses_anonymous_args = 0
 539:Middlewares/Third_Party/FreeRTOS/Source/timers.c **** TickType_t xTimeNow;
 1052              		.loc 1 539 1 is_stmt 0 view .LVU275
 1053 0000 70B5     		push	{r4, r5, r6, lr}
 1054              	.LCFI23:
 1055              		.cfi_def_cfa_offset 16
 1056              		.cfi_offset 4, -16
 1057              		.cfi_offset 5, -12
 1058              		.cfi_offset 6, -8
 1059              		.cfi_offset 14, -4
 1060 0002 82B0     		sub	sp, sp, #8
 1061              	.LCFI24:
 1062              		.cfi_def_cfa_offset 24
 1063 0004 0646     		mov	r6, r0
 1064 0006 0C46     		mov	r4, r1
 540:Middlewares/Third_Party/FreeRTOS/Source/timers.c **** BaseType_t xTimerListsWereSwitched;
 1065              		.loc 1 540 1 is_stmt 1 view .LVU276
 541:Middlewares/Third_Party/FreeRTOS/Source/timers.c **** 
 1066              		.loc 1 541 1 view .LVU277
 543:Middlewares/Third_Party/FreeRTOS/Source/timers.c **** 	{
 1067              		.loc 1 543 2 view .LVU278
 1068 0008 FFF7FEFF 		bl	vTaskSuspendAll
 1069              	.LVL86:
 550:Middlewares/Third_Party/FreeRTOS/Source/timers.c **** 		if( xTimerListsWereSwitched == pdFALSE )
 1070              		.loc 1 550 3 view .LVU279
 550:Middlewares/Third_Party/FreeRTOS/Source/timers.c **** 		if( xTimerListsWereSwitched == pdFALSE )
 1071              		.loc 1 550 14 is_stmt 0 view .LVU280
 1072 000c 01A8     		add	r0, sp, #4
 1073 000e FFF7FEFF 		bl	prvSampleTimeNow
 1074              	.LVL87:
 551:Middlewares/Third_Party/FreeRTOS/Source/timers.c **** 		{
 1075              		.loc 1 551 3 is_stmt 1 view .LVU281
 551:Middlewares/Third_Party/FreeRTOS/Source/timers.c **** 		{
 1076              		.loc 1 551 31 is_stmt 0 view .LVU282
 1077 0012 019B     		ldr	r3, [sp, #4]
 551:Middlewares/Third_Party/FreeRTOS/Source/timers.c **** 		{
 1078              		.loc 1 551 5 view .LVU283
 1079 0014 2BBB     		cbnz	r3, .L78
 1080 0016 0546     		mov	r5, r0
 554:Middlewares/Third_Party/FreeRTOS/Source/timers.c **** 			{
 1081              		.loc 1 554 4 is_stmt 1 view .LVU284
 554:Middlewares/Third_Party/FreeRTOS/Source/timers.c **** 			{
 1082              		.loc 1 554 6 is_stmt 0 view .LVU285
 1083 0018 0CB9     		cbnz	r4, .L79
 554:Middlewares/Third_Party/FreeRTOS/Source/timers.c **** 			{
 1084              		.loc 1 554 37 discriminator 1 view .LVU286
 1085 001a B042     		cmp	r0, r6
 1086 001c 1AD2     		bcs	.L83
 1087              	.L79:
 567:Middlewares/Third_Party/FreeRTOS/Source/timers.c **** 				{
 1088              		.loc 1 567 5 is_stmt 1 view .LVU287
 567:Middlewares/Third_Party/FreeRTOS/Source/timers.c **** 				{
 1089              		.loc 1 567 7 is_stmt 0 view .LVU288
 1090 001e 2CB1     		cbz	r4, .L81
 571:Middlewares/Third_Party/FreeRTOS/Source/timers.c **** 				}
ARM GAS  C:\Users\randommm\AppData\Local\Temp\ccIzDNWf.s 			page 44


 1091              		.loc 1 571 6 is_stmt 1 view .LVU289
 571:Middlewares/Third_Party/FreeRTOS/Source/timers.c **** 				}
 1092              		.loc 1 571 22 is_stmt 0 view .LVU290
 1093 0020 124B     		ldr	r3, .L84
 1094 0022 1B68     		ldr	r3, [r3]
 1095 0024 1C68     		ldr	r4, [r3]
 1096              	.LVL88:
 571:Middlewares/Third_Party/FreeRTOS/Source/timers.c **** 				}
 1097              		.loc 1 571 22 view .LVU291
 1098 0026 B4FA84F4 		clz	r4, r4
 1099 002a 6409     		lsrs	r4, r4, #5
 1100              	.LVL89:
 1101              	.L81:
 574:Middlewares/Third_Party/FreeRTOS/Source/timers.c **** 
 1102              		.loc 1 574 5 is_stmt 1 view .LVU292
 1103 002c 2246     		mov	r2, r4
 1104 002e 711B     		subs	r1, r6, r5
 1105 0030 0F4B     		ldr	r3, .L84+4
 1106 0032 1868     		ldr	r0, [r3]
 1107              	.LVL90:
 574:Middlewares/Third_Party/FreeRTOS/Source/timers.c **** 
 1108              		.loc 1 574 5 is_stmt 0 view .LVU293
 1109 0034 FFF7FEFF 		bl	vQueueWaitForMessageRestricted
 1110              	.LVL91:
 576:Middlewares/Third_Party/FreeRTOS/Source/timers.c **** 				{
 1111              		.loc 1 576 5 is_stmt 1 view .LVU294
 576:Middlewares/Third_Party/FreeRTOS/Source/timers.c **** 				{
 1112              		.loc 1 576 9 is_stmt 0 view .LVU295
 1113 0038 FFF7FEFF 		bl	xTaskResumeAll
 1114              	.LVL92:
 576:Middlewares/Third_Party/FreeRTOS/Source/timers.c **** 				{
 1115              		.loc 1 576 7 view .LVU296
 1116 003c 98B9     		cbnz	r0, .L77
 582:Middlewares/Third_Party/FreeRTOS/Source/timers.c **** 				}
 1117              		.loc 1 582 6 is_stmt 1 view .LVU297
 1118 003e 4FF0E023 		mov	r3, #-536813568
 1119 0042 4FF08052 		mov	r2, #268435456
 1120 0046 C3F8042D 		str	r2, [r3, #3332]
 582:Middlewares/Third_Party/FreeRTOS/Source/timers.c **** 				}
 1121              		.loc 1 582 6 view .LVU298
 1122              		.syntax unified
 1123              	@ 582 "Middlewares/Third_Party/FreeRTOS/Source/timers.c" 1
 1124 004a BFF34F8F 		dsb
 1125              	@ 0 "" 2
 582:Middlewares/Third_Party/FreeRTOS/Source/timers.c **** 				}
 1126              		.loc 1 582 6 view .LVU299
 1127              	@ 582 "Middlewares/Third_Party/FreeRTOS/Source/timers.c" 1
 1128 004e BFF36F8F 		isb
 1129              	@ 0 "" 2
 582:Middlewares/Third_Party/FreeRTOS/Source/timers.c **** 				}
 1130              		.loc 1 582 28 view .LVU300
 1131              		.thumb
 1132              		.syntax unified
 1133 0052 08E0     		b	.L77
 1134              	.LVL93:
 1135              	.L83:
 556:Middlewares/Third_Party/FreeRTOS/Source/timers.c **** 				prvProcessExpiredTimer( xNextExpireTime, xTimeNow );
ARM GAS  C:\Users\randommm\AppData\Local\Temp\ccIzDNWf.s 			page 45


 1136              		.loc 1 556 5 view .LVU301
 556:Middlewares/Third_Party/FreeRTOS/Source/timers.c **** 				prvProcessExpiredTimer( xNextExpireTime, xTimeNow );
 1137              		.loc 1 556 14 is_stmt 0 view .LVU302
 1138 0054 FFF7FEFF 		bl	xTaskResumeAll
 1139              	.LVL94:
 557:Middlewares/Third_Party/FreeRTOS/Source/timers.c **** 			}
 1140              		.loc 1 557 5 is_stmt 1 view .LVU303
 1141 0058 2946     		mov	r1, r5
 1142 005a 3046     		mov	r0, r6
 1143 005c FFF7FEFF 		bl	prvProcessExpiredTimer
 1144              	.LVL95:
 1145 0060 01E0     		b	.L77
 1146              	.LVL96:
 1147              	.L78:
 592:Middlewares/Third_Party/FreeRTOS/Source/timers.c **** 		}
 1148              		.loc 1 592 4 view .LVU304
 592:Middlewares/Third_Party/FreeRTOS/Source/timers.c **** 		}
 1149              		.loc 1 592 13 is_stmt 0 view .LVU305
 1150 0062 FFF7FEFF 		bl	xTaskResumeAll
 1151              	.LVL97:
 1152              	.L77:
 595:Middlewares/Third_Party/FreeRTOS/Source/timers.c **** /*-----------------------------------------------------------*/
 1153              		.loc 1 595 1 view .LVU306
 1154 0066 02B0     		add	sp, sp, #8
 1155              	.LCFI25:
 1156              		.cfi_def_cfa_offset 16
 1157              		@ sp needed
 1158 0068 70BD     		pop	{r4, r5, r6, pc}
 1159              	.LVL98:
 1160              	.L85:
 595:Middlewares/Third_Party/FreeRTOS/Source/timers.c **** /*-----------------------------------------------------------*/
 1161              		.loc 1 595 1 view .LVU307
 1162 006a 00BF     		.align	2
 1163              	.L84:
 1164 006c 00000000 		.word	.LANCHOR1
 1165 0070 00000000 		.word	.LANCHOR2
 1166              		.cfi_endproc
 1167              	.LFE15:
 1169              		.section	.text.prvProcessReceivedCommands,"ax",%progbits
 1170              		.align	1
 1171              		.syntax unified
 1172              		.thumb
 1173              		.thumb_func
 1174              		.fpu softvfp
 1176              	prvProcessReceivedCommands:
 1177              	.LFB19:
 689:Middlewares/Third_Party/FreeRTOS/Source/timers.c **** DaemonTaskMessage_t xMessage;
 1178              		.loc 1 689 1 is_stmt 1 view -0
 1179              		.cfi_startproc
 1180              		@ args = 0, pretend = 0, frame = 24
 1181              		@ frame_needed = 0, uses_anonymous_args = 0
 1182 0000 10B5     		push	{r4, lr}
 1183              	.LCFI26:
 1184              		.cfi_def_cfa_offset 8
 1185              		.cfi_offset 4, -8
 1186              		.cfi_offset 14, -4
 1187 0002 88B0     		sub	sp, sp, #32
ARM GAS  C:\Users\randommm\AppData\Local\Temp\ccIzDNWf.s 			page 46


 1188              	.LCFI27:
 1189              		.cfi_def_cfa_offset 40
 690:Middlewares/Third_Party/FreeRTOS/Source/timers.c **** Timer_t *pxTimer;
 1190              		.loc 1 690 1 view .LVU309
 691:Middlewares/Third_Party/FreeRTOS/Source/timers.c **** BaseType_t xTimerListsWereSwitched, xResult;
 1191              		.loc 1 691 1 view .LVU310
 692:Middlewares/Third_Party/FreeRTOS/Source/timers.c **** TickType_t xTimeNow;
 1192              		.loc 1 692 1 view .LVU311
 693:Middlewares/Third_Party/FreeRTOS/Source/timers.c **** 
 1193              		.loc 1 693 1 view .LVU312
 695:Middlewares/Third_Party/FreeRTOS/Source/timers.c **** 	{
 1194              		.loc 1 695 2 view .LVU313
 695:Middlewares/Third_Party/FreeRTOS/Source/timers.c **** 	{
 1195              		.loc 1 695 7 is_stmt 0 view .LVU314
 1196 0004 02E0     		b	.L89
 1197              	.L88:
 714:Middlewares/Third_Party/FreeRTOS/Source/timers.c **** 			}
 1198              		.loc 1 714 29 is_stmt 1 view .LVU315
 721:Middlewares/Third_Party/FreeRTOS/Source/timers.c **** 		{
 1199              		.loc 1 721 3 view .LVU316
 721:Middlewares/Third_Party/FreeRTOS/Source/timers.c **** 		{
 1200              		.loc 1 721 15 is_stmt 0 view .LVU317
 1201 0006 049B     		ldr	r3, [sp, #16]
 721:Middlewares/Third_Party/FreeRTOS/Source/timers.c **** 		{
 1202              		.loc 1 721 5 view .LVU318
 1203 0008 002B     		cmp	r3, #0
 1204 000a 0FDA     		bge	.L102
 1205              	.L89:
 695:Middlewares/Third_Party/FreeRTOS/Source/timers.c **** 	{
 1206              		.loc 1 695 7 is_stmt 1 view .LVU319
 695:Middlewares/Third_Party/FreeRTOS/Source/timers.c **** 	{
 1207              		.loc 1 695 9 is_stmt 0 view .LVU320
 1208 000c 0022     		movs	r2, #0
 1209 000e 04A9     		add	r1, sp, #16
 1210 0010 364B     		ldr	r3, .L105
 1211 0012 1868     		ldr	r0, [r3]
 1212 0014 FFF7FEFF 		bl	xQueueReceive
 1213              	.LVL99:
 695:Middlewares/Third_Party/FreeRTOS/Source/timers.c **** 	{
 1214              		.loc 1 695 7 view .LVU321
 1215 0018 0028     		cmp	r0, #0
 1216 001a 65D0     		beq	.L103
 701:Middlewares/Third_Party/FreeRTOS/Source/timers.c **** 			{
 1217              		.loc 1 701 4 is_stmt 1 view .LVU322
 701:Middlewares/Third_Party/FreeRTOS/Source/timers.c **** 			{
 1218              		.loc 1 701 16 is_stmt 0 view .LVU323
 1219 001c 049B     		ldr	r3, [sp, #16]
 701:Middlewares/Third_Party/FreeRTOS/Source/timers.c **** 			{
 1220              		.loc 1 701 6 view .LVU324
 1221 001e 002B     		cmp	r3, #0
 1222 0020 F1DA     		bge	.L88
 1223              	.LBB45:
 703:Middlewares/Third_Party/FreeRTOS/Source/timers.c **** 
 1224              		.loc 1 703 5 is_stmt 1 discriminator 2 view .LVU325
 1225              	.LVL100:
 707:Middlewares/Third_Party/FreeRTOS/Source/timers.c **** 
 1226              		.loc 1 707 5 discriminator 2 view .LVU326
ARM GAS  C:\Users\randommm\AppData\Local\Temp\ccIzDNWf.s 			page 47


 707:Middlewares/Third_Party/FreeRTOS/Source/timers.c **** 
 1227              		.loc 1 707 31 discriminator 2 view .LVU327
 710:Middlewares/Third_Party/FreeRTOS/Source/timers.c **** 			}
 1228              		.loc 1 710 5 discriminator 2 view .LVU328
 1229 0022 0799     		ldr	r1, [sp, #28]
 1230 0024 0698     		ldr	r0, [sp, #24]
 1231 0026 059B     		ldr	r3, [sp, #20]
 1232 0028 9847     		blx	r3
 1233              	.LVL101:
 1234              	.LBE45:
 1235 002a ECE7     		b	.L88
 1236              	.LVL102:
 1237              	.L102:
 725:Middlewares/Third_Party/FreeRTOS/Source/timers.c **** 
 1238              		.loc 1 725 4 view .LVU329
 725:Middlewares/Third_Party/FreeRTOS/Source/timers.c **** 
 1239              		.loc 1 725 12 is_stmt 0 view .LVU330
 1240 002c 069C     		ldr	r4, [sp, #24]
 1241              	.LVL103:
 727:Middlewares/Third_Party/FreeRTOS/Source/timers.c **** 			{
 1242              		.loc 1 727 4 is_stmt 1 view .LVU331
 727:Middlewares/Third_Party/FreeRTOS/Source/timers.c **** 			{
 1243              		.loc 1 727 8 is_stmt 0 view .LVU332
 1244 002e 6369     		ldr	r3, [r4, #20]
 727:Middlewares/Third_Party/FreeRTOS/Source/timers.c **** 			{
 1245              		.loc 1 727 6 view .LVU333
 1246 0030 13B1     		cbz	r3, .L90
 730:Middlewares/Third_Party/FreeRTOS/Source/timers.c **** 			}
 1247              		.loc 1 730 5 is_stmt 1 view .LVU334
 730:Middlewares/Third_Party/FreeRTOS/Source/timers.c **** 			}
 1248              		.loc 1 730 14 is_stmt 0 view .LVU335
 1249 0032 201D     		adds	r0, r4, #4
 1250 0034 FFF7FEFF 		bl	uxListRemove
 1251              	.LVL104:
 1252              	.L90:
 734:Middlewares/Third_Party/FreeRTOS/Source/timers.c **** 			}
 1253              		.loc 1 734 29 is_stmt 1 view .LVU336
 737:Middlewares/Third_Party/FreeRTOS/Source/timers.c **** 
 1254              		.loc 1 737 106 view .LVU337
 745:Middlewares/Third_Party/FreeRTOS/Source/timers.c **** 
 1255              		.loc 1 745 4 view .LVU338
 745:Middlewares/Third_Party/FreeRTOS/Source/timers.c **** 
 1256              		.loc 1 745 15 is_stmt 0 view .LVU339
 1257 0038 03A8     		add	r0, sp, #12
 1258 003a FFF7FEFF 		bl	prvSampleTimeNow
 1259              	.LVL105:
 747:Middlewares/Third_Party/FreeRTOS/Source/timers.c **** 			{
 1260              		.loc 1 747 4 is_stmt 1 view .LVU340
 747:Middlewares/Third_Party/FreeRTOS/Source/timers.c **** 			{
 1261              		.loc 1 747 20 is_stmt 0 view .LVU341
 1262 003e 049B     		ldr	r3, [sp, #16]
 747:Middlewares/Third_Party/FreeRTOS/Source/timers.c **** 			{
 1263              		.loc 1 747 4 view .LVU342
 1264 0040 092B     		cmp	r3, #9
 1265 0042 E3D8     		bhi	.L89
 1266 0044 01A2     		adr	r2, .L93
 1267 0046 52F823F0 		ldr	pc, [r2, r3, lsl #2]
ARM GAS  C:\Users\randommm\AppData\Local\Temp\ccIzDNWf.s 			page 48


 1268 004a 00BF     		.p2align 2
 1269              	.L93:
 1270 004c 75000000 		.word	.L94+1
 1271 0050 75000000 		.word	.L94+1
 1272 0054 75000000 		.word	.L94+1
 1273 0058 0D000000 		.word	.L89+1
 1274 005c BB000000 		.word	.L92+1
 1275 0060 E1000000 		.word	.L95+1
 1276 0064 75000000 		.word	.L94+1
 1277 0068 75000000 		.word	.L94+1
 1278 006c 0D000000 		.word	.L89+1
 1279 0070 BB000000 		.word	.L92+1
 1280              		.p2align 1
 1281              	.L94:
 755:Middlewares/Third_Party/FreeRTOS/Source/timers.c **** 					{
 1282              		.loc 1 755 6 is_stmt 1 view .LVU343
 755:Middlewares/Third_Party/FreeRTOS/Source/timers.c **** 					{
 1283              		.loc 1 755 75 is_stmt 0 view .LVU344
 1284 0074 059B     		ldr	r3, [sp, #20]
 755:Middlewares/Third_Party/FreeRTOS/Source/timers.c **** 					{
 1285              		.loc 1 755 99 view .LVU345
 1286 0076 A169     		ldr	r1, [r4, #24]
 755:Middlewares/Third_Party/FreeRTOS/Source/timers.c **** 					{
 1287              		.loc 1 755 10 view .LVU346
 1288 0078 0246     		mov	r2, r0
 1289 007a 1944     		add	r1, r1, r3
 1290 007c 2046     		mov	r0, r4
 1291              	.LVL106:
 755:Middlewares/Third_Party/FreeRTOS/Source/timers.c **** 					{
 1292              		.loc 1 755 10 view .LVU347
 1293 007e FFF7FEFF 		bl	prvInsertTimerInActiveList
 1294              	.LVL107:
 755:Middlewares/Third_Party/FreeRTOS/Source/timers.c **** 					{
 1295              		.loc 1 755 8 view .LVU348
 1296 0082 0028     		cmp	r0, #0
 1297 0084 C2D0     		beq	.L89
 759:Middlewares/Third_Party/FreeRTOS/Source/timers.c **** 						traceTIMER_EXPIRED( pxTimer );
 1298              		.loc 1 759 7 is_stmt 1 view .LVU349
 759:Middlewares/Third_Party/FreeRTOS/Source/timers.c **** 						traceTIMER_EXPIRED( pxTimer );
 1299              		.loc 1 759 14 is_stmt 0 view .LVU350
 1300 0086 636A     		ldr	r3, [r4, #36]
 759:Middlewares/Third_Party/FreeRTOS/Source/timers.c **** 						traceTIMER_EXPIRED( pxTimer );
 1301              		.loc 1 759 7 view .LVU351
 1302 0088 2046     		mov	r0, r4
 1303 008a 9847     		blx	r3
 1304              	.LVL108:
 760:Middlewares/Third_Party/FreeRTOS/Source/timers.c **** 
 1305              		.loc 1 760 36 is_stmt 1 view .LVU352
 762:Middlewares/Third_Party/FreeRTOS/Source/timers.c **** 						{
 1306              		.loc 1 762 7 view .LVU353
 762:Middlewares/Third_Party/FreeRTOS/Source/timers.c **** 						{
 1307              		.loc 1 762 18 is_stmt 0 view .LVU354
 1308 008c E369     		ldr	r3, [r4, #28]
 762:Middlewares/Third_Party/FreeRTOS/Source/timers.c **** 						{
 1309              		.loc 1 762 9 view .LVU355
 1310 008e 012B     		cmp	r3, #1
 1311 0090 BCD1     		bne	.L89
ARM GAS  C:\Users\randommm\AppData\Local\Temp\ccIzDNWf.s 			page 49


 764:Middlewares/Third_Party/FreeRTOS/Source/timers.c **** 							configASSERT( xResult );
 1312              		.loc 1 764 8 is_stmt 1 view .LVU356
 764:Middlewares/Third_Party/FreeRTOS/Source/timers.c **** 							configASSERT( xResult );
 1313              		.loc 1 764 129 is_stmt 0 view .LVU357
 1314 0092 A269     		ldr	r2, [r4, #24]
 764:Middlewares/Third_Party/FreeRTOS/Source/timers.c **** 							configASSERT( xResult );
 1315              		.loc 1 764 18 view .LVU358
 1316 0094 0021     		movs	r1, #0
 1317 0096 0091     		str	r1, [sp]
 1318 0098 0B46     		mov	r3, r1
 1319 009a 0598     		ldr	r0, [sp, #20]
 1320 009c 0244     		add	r2, r2, r0
 1321 009e 2046     		mov	r0, r4
 1322 00a0 FFF7FEFF 		bl	xTimerGenericCommand
 1323              	.LVL109:
 765:Middlewares/Third_Party/FreeRTOS/Source/timers.c **** 							( void ) xResult;
 1324              		.loc 1 765 8 is_stmt 1 view .LVU359
 1325 00a4 0028     		cmp	r0, #0
 1326 00a6 B1D1     		bne	.L89
 765:Middlewares/Third_Party/FreeRTOS/Source/timers.c **** 							( void ) xResult;
 1327              		.loc 1 765 8 view .LVU360
 1328              	.LBB46:
 1329              	.LBI46:
 191:Middlewares/Third_Party/FreeRTOS/Source/portable/GCC/ARM_CM3/portmacro.h **** {
 1330              		.loc 2 191 30 view .LVU361
 1331              	.LBB47:
 193:Middlewares/Third_Party/FreeRTOS/Source/portable/GCC/ARM_CM3/portmacro.h **** 
 1332              		.loc 2 193 1 view .LVU362
 1333              		.loc 2 195 2 view .LVU363
 1334              		.syntax unified
 1335              	@ 195 "Middlewares/Third_Party/FreeRTOS/Source/portable/GCC/ARM_CM3/portmacro.h" 1
 1336 00a8 4FF01003 			mov r3, #16												
 1337 00ac 83F31188 		msr basepri, r3											
 1338 00b0 BFF36F8F 		isb														
 1339 00b4 BFF34F8F 		dsb														
 1340              	
 1341              	@ 0 "" 2
 1342              	.LVL110:
 1343              		.thumb
 1344              		.syntax unified
 1345              	.L97:
 1346              		.loc 2 195 2 is_stmt 0 view .LVU364
 1347              	.LBE47:
 1348              	.LBE46:
 765:Middlewares/Third_Party/FreeRTOS/Source/timers.c **** 							( void ) xResult;
 1349              		.loc 1 765 8 is_stmt 1 discriminator 2 view .LVU365
 765:Middlewares/Third_Party/FreeRTOS/Source/timers.c **** 							( void ) xResult;
 1350              		.loc 1 765 8 discriminator 2 view .LVU366
 765:Middlewares/Third_Party/FreeRTOS/Source/timers.c **** 							( void ) xResult;
 1351              		.loc 1 765 8 discriminator 2 view .LVU367
 1352 00b8 FEE7     		b	.L97
 1353              	.LVL111:
 1354              	.L92:
 787:Middlewares/Third_Party/FreeRTOS/Source/timers.c **** 					configASSERT( ( pxTimer->xTimerPeriodInTicks > 0 ) );
 1355              		.loc 1 787 6 view .LVU368
 787:Middlewares/Third_Party/FreeRTOS/Source/timers.c **** 					configASSERT( ( pxTimer->xTimerPeriodInTicks > 0 ) );
 1356              		.loc 1 787 64 is_stmt 0 view .LVU369
ARM GAS  C:\Users\randommm\AppData\Local\Temp\ccIzDNWf.s 			page 50


 1357 00ba 0599     		ldr	r1, [sp, #20]
 787:Middlewares/Third_Party/FreeRTOS/Source/timers.c **** 					configASSERT( ( pxTimer->xTimerPeriodInTicks > 0 ) );
 1358              		.loc 1 787 35 view .LVU370
 1359 00bc A161     		str	r1, [r4, #24]
 788:Middlewares/Third_Party/FreeRTOS/Source/timers.c **** 
 1360              		.loc 1 788 6 is_stmt 1 view .LVU371
 1361 00be 31B1     		cbz	r1, .L104
 788:Middlewares/Third_Party/FreeRTOS/Source/timers.c **** 
 1362              		.loc 1 788 58 discriminator 2 view .LVU372
 796:Middlewares/Third_Party/FreeRTOS/Source/timers.c **** 					break;
 1363              		.loc 1 796 6 discriminator 2 view .LVU373
 796:Middlewares/Third_Party/FreeRTOS/Source/timers.c **** 					break;
 1364              		.loc 1 796 15 is_stmt 0 discriminator 2 view .LVU374
 1365 00c0 0346     		mov	r3, r0
 1366 00c2 0246     		mov	r2, r0
 1367 00c4 0144     		add	r1, r1, r0
 1368 00c6 2046     		mov	r0, r4
 1369              	.LVL112:
 796:Middlewares/Third_Party/FreeRTOS/Source/timers.c **** 					break;
 1370              		.loc 1 796 15 discriminator 2 view .LVU375
 1371 00c8 FFF7FEFF 		bl	prvInsertTimerInActiveList
 1372              	.LVL113:
 797:Middlewares/Third_Party/FreeRTOS/Source/timers.c **** 
 1373              		.loc 1 797 6 is_stmt 1 discriminator 2 view .LVU376
 1374 00cc 9EE7     		b	.L89
 1375              	.LVL114:
 1376              	.L104:
 788:Middlewares/Third_Party/FreeRTOS/Source/timers.c **** 
 1377              		.loc 1 788 6 view .LVU377
 1378              	.LBB48:
 1379              	.LBI48:
 191:Middlewares/Third_Party/FreeRTOS/Source/portable/GCC/ARM_CM3/portmacro.h **** {
 1380              		.loc 2 191 30 view .LVU378
 1381              	.LBB49:
 193:Middlewares/Third_Party/FreeRTOS/Source/portable/GCC/ARM_CM3/portmacro.h **** 
 1382              		.loc 2 193 1 view .LVU379
 1383              		.loc 2 195 2 view .LVU380
 1384              		.syntax unified
 1385              	@ 195 "Middlewares/Third_Party/FreeRTOS/Source/portable/GCC/ARM_CM3/portmacro.h" 1
 1386 00ce 4FF01003 			mov r3, #16												
 1387 00d2 83F31188 		msr basepri, r3											
 1388 00d6 BFF36F8F 		isb														
 1389 00da BFF34F8F 		dsb														
 1390              	
 1391              	@ 0 "" 2
 1392              	.LVL115:
 1393              		.thumb
 1394              		.syntax unified
 1395              	.L99:
 1396              		.loc 2 195 2 is_stmt 0 view .LVU381
 1397              	.LBE49:
 1398              	.LBE48:
 788:Middlewares/Third_Party/FreeRTOS/Source/timers.c **** 
 1399              		.loc 1 788 6 is_stmt 1 discriminator 5 view .LVU382
 788:Middlewares/Third_Party/FreeRTOS/Source/timers.c **** 
 1400              		.loc 1 788 6 discriminator 5 view .LVU383
 788:Middlewares/Third_Party/FreeRTOS/Source/timers.c **** 
ARM GAS  C:\Users\randommm\AppData\Local\Temp\ccIzDNWf.s 			page 51


 1401              		.loc 1 788 6 discriminator 5 view .LVU384
 1402 00de FEE7     		b	.L99
 1403              	.L95:
 807:Middlewares/Third_Party/FreeRTOS/Source/timers.c **** 					}
 1404              		.loc 1 807 7 view .LVU385
 1405 00e0 2046     		mov	r0, r4
 1406              	.LVL116:
 807:Middlewares/Third_Party/FreeRTOS/Source/timers.c **** 					}
 1407              		.loc 1 807 7 is_stmt 0 view .LVU386
 1408 00e2 FFF7FEFF 		bl	vPortFree
 1409              	.LVL117:
 824:Middlewares/Third_Party/FreeRTOS/Source/timers.c **** 
 1410              		.loc 1 824 6 is_stmt 1 view .LVU387
 1411 00e6 91E7     		b	.L89
 1412              	.LVL118:
 1413              	.L103:
 832:Middlewares/Third_Party/FreeRTOS/Source/timers.c **** /*-----------------------------------------------------------*/
 1414              		.loc 1 832 1 is_stmt 0 view .LVU388
 1415 00e8 08B0     		add	sp, sp, #32
 1416              	.LCFI28:
 1417              		.cfi_def_cfa_offset 8
 1418              		@ sp needed
 1419 00ea 10BD     		pop	{r4, pc}
 1420              	.L106:
 1421              		.align	2
 1422              	.L105:
 1423 00ec 00000000 		.word	.LANCHOR2
 1424              		.cfi_endproc
 1425              	.LFE19:
 1427              		.section	.text.prvTimerTask,"ax",%progbits
 1428              		.align	1
 1429              		.syntax unified
 1430              		.thumb
 1431              		.thumb_func
 1432              		.fpu softvfp
 1434              	prvTimerTask:
 1435              	.LFB14:
 503:Middlewares/Third_Party/FreeRTOS/Source/timers.c **** TickType_t xNextExpireTime;
 1436              		.loc 1 503 1 is_stmt 1 view -0
 1437              		.cfi_startproc
 1438              		@ args = 0, pretend = 0, frame = 8
 1439              		@ frame_needed = 0, uses_anonymous_args = 0
 1440              	.LVL119:
 503:Middlewares/Third_Party/FreeRTOS/Source/timers.c **** TickType_t xNextExpireTime;
 1441              		.loc 1 503 1 is_stmt 0 view .LVU390
 1442 0000 00B5     		push	{lr}
 1443              	.LCFI29:
 1444              		.cfi_def_cfa_offset 4
 1445              		.cfi_offset 14, -4
 1446 0002 83B0     		sub	sp, sp, #12
 1447              	.LCFI30:
 1448              		.cfi_def_cfa_offset 16
 1449              	.LVL120:
 1450              	.L108:
 504:Middlewares/Third_Party/FreeRTOS/Source/timers.c **** BaseType_t xListWasEmpty;
 1451              		.loc 1 504 1 is_stmt 1 discriminator 1 view .LVU391
 505:Middlewares/Third_Party/FreeRTOS/Source/timers.c **** 
ARM GAS  C:\Users\randommm\AppData\Local\Temp\ccIzDNWf.s 			page 52


 1452              		.loc 1 505 1 discriminator 1 view .LVU392
 508:Middlewares/Third_Party/FreeRTOS/Source/timers.c **** 
 1453              		.loc 1 508 2 discriminator 1 view .LVU393
 522:Middlewares/Third_Party/FreeRTOS/Source/timers.c **** 	{
 1454              		.loc 1 522 2 discriminator 1 view .LVU394
 526:Middlewares/Third_Party/FreeRTOS/Source/timers.c **** 
 1455              		.loc 1 526 3 discriminator 1 view .LVU395
 526:Middlewares/Third_Party/FreeRTOS/Source/timers.c **** 
 1456              		.loc 1 526 21 is_stmt 0 discriminator 1 view .LVU396
 1457 0004 01A8     		add	r0, sp, #4
 1458 0006 FFF7FEFF 		bl	prvGetNextExpireTime
 1459              	.LVL121:
 530:Middlewares/Third_Party/FreeRTOS/Source/timers.c **** 
 1460              		.loc 1 530 3 is_stmt 1 discriminator 1 view .LVU397
 1461 000a 0199     		ldr	r1, [sp, #4]
 1462 000c FFF7FEFF 		bl	prvProcessTimerOrBlockTask
 1463              	.LVL122:
 533:Middlewares/Third_Party/FreeRTOS/Source/timers.c **** 	}
 1464              		.loc 1 533 3 discriminator 1 view .LVU398
 1465 0010 FFF7FEFF 		bl	prvProcessReceivedCommands
 1466              	.LVL123:
 522:Middlewares/Third_Party/FreeRTOS/Source/timers.c **** 	{
 1467              		.loc 1 522 8 discriminator 1 view .LVU399
 1468 0014 F6E7     		b	.L108
 1469              		.cfi_endproc
 1470              	.LFE14:
 1472              		.section	.text.xTimerGetTimerDaemonTaskHandle,"ax",%progbits
 1473              		.align	1
 1474              		.global	xTimerGetTimerDaemonTaskHandle
 1475              		.syntax unified
 1476              		.thumb
 1477              		.thumb_func
 1478              		.fpu softvfp
 1480              	xTimerGetTimerDaemonTaskHandle:
 1481              	.LFB9:
 425:Middlewares/Third_Party/FreeRTOS/Source/timers.c **** 	/* If xTimerGetTimerDaemonTaskHandle() is called before the scheduler has been
 1482              		.loc 1 425 1 view -0
 1483              		.cfi_startproc
 1484              		@ args = 0, pretend = 0, frame = 0
 1485              		@ frame_needed = 0, uses_anonymous_args = 0
 1486              		@ link register save eliminated.
 428:Middlewares/Third_Party/FreeRTOS/Source/timers.c **** 	return xTimerTaskHandle;
 1487              		.loc 1 428 2 view .LVU401
 1488 0000 064B     		ldr	r3, .L114
 1489 0002 1868     		ldr	r0, [r3]
 1490 0004 00B1     		cbz	r0, .L113
 430:Middlewares/Third_Party/FreeRTOS/Source/timers.c **** /*-----------------------------------------------------------*/
 1491              		.loc 1 430 1 is_stmt 0 view .LVU402
 1492 0006 7047     		bx	lr
 1493              	.L113:
 428:Middlewares/Third_Party/FreeRTOS/Source/timers.c **** 	return xTimerTaskHandle;
 1494              		.loc 1 428 2 is_stmt 1 view .LVU403
 1495              	.LBB50:
 1496              	.LBI50:
 191:Middlewares/Third_Party/FreeRTOS/Source/portable/GCC/ARM_CM3/portmacro.h **** {
 1497              		.loc 2 191 30 view .LVU404
 1498              	.LBB51:
ARM GAS  C:\Users\randommm\AppData\Local\Temp\ccIzDNWf.s 			page 53


 193:Middlewares/Third_Party/FreeRTOS/Source/portable/GCC/ARM_CM3/portmacro.h **** 
 1499              		.loc 2 193 1 view .LVU405
 1500              		.loc 2 195 2 view .LVU406
 1501              		.syntax unified
 1502              	@ 195 "Middlewares/Third_Party/FreeRTOS/Source/portable/GCC/ARM_CM3/portmacro.h" 1
 1503 0008 4FF01003 			mov r3, #16												
 1504 000c 83F31188 		msr basepri, r3											
 1505 0010 BFF36F8F 		isb														
 1506 0014 BFF34F8F 		dsb														
 1507              	
 1508              	@ 0 "" 2
 1509              	.LVL124:
 1510              		.thumb
 1511              		.syntax unified
 1512              	.L112:
 1513              		.loc 2 195 2 is_stmt 0 view .LVU407
 1514              	.LBE51:
 1515              	.LBE50:
 428:Middlewares/Third_Party/FreeRTOS/Source/timers.c **** 	return xTimerTaskHandle;
 1516              		.loc 1 428 2 is_stmt 1 discriminator 1 view .LVU408
 428:Middlewares/Third_Party/FreeRTOS/Source/timers.c **** 	return xTimerTaskHandle;
 1517              		.loc 1 428 2 discriminator 1 view .LVU409
 428:Middlewares/Third_Party/FreeRTOS/Source/timers.c **** 	return xTimerTaskHandle;
 1518              		.loc 1 428 2 discriminator 1 view .LVU410
 1519 0018 FEE7     		b	.L112
 1520              	.L115:
 1521 001a 00BF     		.align	2
 1522              	.L114:
 1523 001c 00000000 		.word	.LANCHOR5
 1524              		.cfi_endproc
 1525              	.LFE9:
 1527              		.section	.text.xTimerGetPeriod,"ax",%progbits
 1528              		.align	1
 1529              		.global	xTimerGetPeriod
 1530              		.syntax unified
 1531              		.thumb
 1532              		.thumb_func
 1533              		.fpu softvfp
 1535              	xTimerGetPeriod:
 1536              	.LVL125:
 1537              	.LFB10:
 434:Middlewares/Third_Party/FreeRTOS/Source/timers.c **** Timer_t *pxTimer = ( Timer_t * ) xTimer;
 1538              		.loc 1 434 1 view -0
 1539              		.cfi_startproc
 1540              		@ args = 0, pretend = 0, frame = 0
 1541              		@ frame_needed = 0, uses_anonymous_args = 0
 1542              		@ link register save eliminated.
 435:Middlewares/Third_Party/FreeRTOS/Source/timers.c **** 
 1543              		.loc 1 435 1 view .LVU412
 437:Middlewares/Third_Party/FreeRTOS/Source/timers.c **** 	return pxTimer->xTimerPeriodInTicks;
 1544              		.loc 1 437 2 view .LVU413
 1545 0000 08B1     		cbz	r0, .L119
 437:Middlewares/Third_Party/FreeRTOS/Source/timers.c **** 	return pxTimer->xTimerPeriodInTicks;
 1546              		.loc 1 437 24 discriminator 2 view .LVU414
 438:Middlewares/Third_Party/FreeRTOS/Source/timers.c **** }
 1547              		.loc 1 438 2 discriminator 2 view .LVU415
 439:Middlewares/Third_Party/FreeRTOS/Source/timers.c **** /*-----------------------------------------------------------*/
ARM GAS  C:\Users\randommm\AppData\Local\Temp\ccIzDNWf.s 			page 54


 1548              		.loc 1 439 1 is_stmt 0 discriminator 2 view .LVU416
 1549 0002 8069     		ldr	r0, [r0, #24]
 1550              	.LVL126:
 439:Middlewares/Third_Party/FreeRTOS/Source/timers.c **** /*-----------------------------------------------------------*/
 1551              		.loc 1 439 1 discriminator 2 view .LVU417
 1552 0004 7047     		bx	lr
 1553              	.LVL127:
 1554              	.L119:
 437:Middlewares/Third_Party/FreeRTOS/Source/timers.c **** 	return pxTimer->xTimerPeriodInTicks;
 1555              		.loc 1 437 2 is_stmt 1 view .LVU418
 1556              	.LBB52:
 1557              	.LBI52:
 191:Middlewares/Third_Party/FreeRTOS/Source/portable/GCC/ARM_CM3/portmacro.h **** {
 1558              		.loc 2 191 30 view .LVU419
 1559              	.LBB53:
 193:Middlewares/Third_Party/FreeRTOS/Source/portable/GCC/ARM_CM3/portmacro.h **** 
 1560              		.loc 2 193 1 view .LVU420
 1561              		.loc 2 195 2 view .LVU421
 1562              		.syntax unified
 1563              	@ 195 "Middlewares/Third_Party/FreeRTOS/Source/portable/GCC/ARM_CM3/portmacro.h" 1
 1564 0006 4FF01003 			mov r3, #16												
 1565 000a 83F31188 		msr basepri, r3											
 1566 000e BFF36F8F 		isb														
 1567 0012 BFF34F8F 		dsb														
 1568              	
 1569              	@ 0 "" 2
 1570              	.LVL128:
 1571              		.thumb
 1572              		.syntax unified
 1573              	.L118:
 1574              		.loc 2 195 2 is_stmt 0 view .LVU422
 1575              	.LBE53:
 1576              	.LBE52:
 437:Middlewares/Third_Party/FreeRTOS/Source/timers.c **** 	return pxTimer->xTimerPeriodInTicks;
 1577              		.loc 1 437 2 is_stmt 1 discriminator 1 view .LVU423
 437:Middlewares/Third_Party/FreeRTOS/Source/timers.c **** 	return pxTimer->xTimerPeriodInTicks;
 1578              		.loc 1 437 2 discriminator 1 view .LVU424
 437:Middlewares/Third_Party/FreeRTOS/Source/timers.c **** 	return pxTimer->xTimerPeriodInTicks;
 1579              		.loc 1 437 2 discriminator 1 view .LVU425
 1580 0016 FEE7     		b	.L118
 1581              		.cfi_endproc
 1582              	.LFE10:
 1584              		.section	.text.xTimerGetExpiryTime,"ax",%progbits
 1585              		.align	1
 1586              		.global	xTimerGetExpiryTime
 1587              		.syntax unified
 1588              		.thumb
 1589              		.thumb_func
 1590              		.fpu softvfp
 1592              	xTimerGetExpiryTime:
 1593              	.LVL129:
 1594              	.LFB11:
 443:Middlewares/Third_Party/FreeRTOS/Source/timers.c **** Timer_t * pxTimer = ( Timer_t * ) xTimer;
 1595              		.loc 1 443 1 view -0
 1596              		.cfi_startproc
 1597              		@ args = 0, pretend = 0, frame = 0
 1598              		@ frame_needed = 0, uses_anonymous_args = 0
ARM GAS  C:\Users\randommm\AppData\Local\Temp\ccIzDNWf.s 			page 55


 1599              		@ link register save eliminated.
 444:Middlewares/Third_Party/FreeRTOS/Source/timers.c **** TickType_t xReturn;
 1600              		.loc 1 444 1 view .LVU427
 445:Middlewares/Third_Party/FreeRTOS/Source/timers.c **** 
 1601              		.loc 1 445 1 view .LVU428
 447:Middlewares/Third_Party/FreeRTOS/Source/timers.c **** 	xReturn = listGET_LIST_ITEM_VALUE( &( pxTimer->xTimerListItem ) );
 1602              		.loc 1 447 2 view .LVU429
 1603 0000 08B1     		cbz	r0, .L123
 447:Middlewares/Third_Party/FreeRTOS/Source/timers.c **** 	xReturn = listGET_LIST_ITEM_VALUE( &( pxTimer->xTimerListItem ) );
 1604              		.loc 1 447 24 discriminator 2 view .LVU430
 448:Middlewares/Third_Party/FreeRTOS/Source/timers.c **** 	return xReturn;
 1605              		.loc 1 448 2 discriminator 2 view .LVU431
 1606              	.LVL130:
 449:Middlewares/Third_Party/FreeRTOS/Source/timers.c **** }
 1607              		.loc 1 449 2 discriminator 2 view .LVU432
 450:Middlewares/Third_Party/FreeRTOS/Source/timers.c **** /*-----------------------------------------------------------*/
 1608              		.loc 1 450 1 is_stmt 0 discriminator 2 view .LVU433
 1609 0002 4068     		ldr	r0, [r0, #4]
 1610              	.LVL131:
 450:Middlewares/Third_Party/FreeRTOS/Source/timers.c **** /*-----------------------------------------------------------*/
 1611              		.loc 1 450 1 discriminator 2 view .LVU434
 1612 0004 7047     		bx	lr
 1613              	.LVL132:
 1614              	.L123:
 447:Middlewares/Third_Party/FreeRTOS/Source/timers.c **** 	xReturn = listGET_LIST_ITEM_VALUE( &( pxTimer->xTimerListItem ) );
 1615              		.loc 1 447 2 is_stmt 1 view .LVU435
 1616              	.LBB54:
 1617              	.LBI54:
 191:Middlewares/Third_Party/FreeRTOS/Source/portable/GCC/ARM_CM3/portmacro.h **** {
 1618              		.loc 2 191 30 view .LVU436
 1619              	.LBB55:
 193:Middlewares/Third_Party/FreeRTOS/Source/portable/GCC/ARM_CM3/portmacro.h **** 
 1620              		.loc 2 193 1 view .LVU437
 1621              		.loc 2 195 2 view .LVU438
 1622              		.syntax unified
 1623              	@ 195 "Middlewares/Third_Party/FreeRTOS/Source/portable/GCC/ARM_CM3/portmacro.h" 1
 1624 0006 4FF01003 			mov r3, #16												
 1625 000a 83F31188 		msr basepri, r3											
 1626 000e BFF36F8F 		isb														
 1627 0012 BFF34F8F 		dsb														
 1628              	
 1629              	@ 0 "" 2
 1630              	.LVL133:
 1631              		.thumb
 1632              		.syntax unified
 1633              	.L122:
 1634              		.loc 2 195 2 is_stmt 0 view .LVU439
 1635              	.LBE55:
 1636              	.LBE54:
 447:Middlewares/Third_Party/FreeRTOS/Source/timers.c **** 	xReturn = listGET_LIST_ITEM_VALUE( &( pxTimer->xTimerListItem ) );
 1637              		.loc 1 447 2 is_stmt 1 discriminator 1 view .LVU440
 447:Middlewares/Third_Party/FreeRTOS/Source/timers.c **** 	xReturn = listGET_LIST_ITEM_VALUE( &( pxTimer->xTimerListItem ) );
 1638              		.loc 1 447 2 discriminator 1 view .LVU441
 447:Middlewares/Third_Party/FreeRTOS/Source/timers.c **** 	xReturn = listGET_LIST_ITEM_VALUE( &( pxTimer->xTimerListItem ) );
 1639              		.loc 1 447 2 discriminator 1 view .LVU442
 1640 0016 FEE7     		b	.L122
 1641              		.cfi_endproc
ARM GAS  C:\Users\randommm\AppData\Local\Temp\ccIzDNWf.s 			page 56


 1642              	.LFE11:
 1644              		.section	.text.pcTimerGetName,"ax",%progbits
 1645              		.align	1
 1646              		.global	pcTimerGetName
 1647              		.syntax unified
 1648              		.thumb
 1649              		.thumb_func
 1650              		.fpu softvfp
 1652              	pcTimerGetName:
 1653              	.LVL134:
 1654              	.LFB12:
 454:Middlewares/Third_Party/FreeRTOS/Source/timers.c **** Timer_t *pxTimer = ( Timer_t * ) xTimer;
 1655              		.loc 1 454 1 view -0
 1656              		.cfi_startproc
 1657              		@ args = 0, pretend = 0, frame = 0
 1658              		@ frame_needed = 0, uses_anonymous_args = 0
 1659              		@ link register save eliminated.
 455:Middlewares/Third_Party/FreeRTOS/Source/timers.c **** 
 1660              		.loc 1 455 1 view .LVU444
 457:Middlewares/Third_Party/FreeRTOS/Source/timers.c **** 	return pxTimer->pcTimerName;
 1661              		.loc 1 457 2 view .LVU445
 1662 0000 08B1     		cbz	r0, .L127
 457:Middlewares/Third_Party/FreeRTOS/Source/timers.c **** 	return pxTimer->pcTimerName;
 1663              		.loc 1 457 24 discriminator 2 view .LVU446
 458:Middlewares/Third_Party/FreeRTOS/Source/timers.c **** }
 1664              		.loc 1 458 2 discriminator 2 view .LVU447
 459:Middlewares/Third_Party/FreeRTOS/Source/timers.c **** /*-----------------------------------------------------------*/
 1665              		.loc 1 459 1 is_stmt 0 discriminator 2 view .LVU448
 1666 0002 0068     		ldr	r0, [r0]
 1667              	.LVL135:
 459:Middlewares/Third_Party/FreeRTOS/Source/timers.c **** /*-----------------------------------------------------------*/
 1668              		.loc 1 459 1 discriminator 2 view .LVU449
 1669 0004 7047     		bx	lr
 1670              	.LVL136:
 1671              	.L127:
 457:Middlewares/Third_Party/FreeRTOS/Source/timers.c **** 	return pxTimer->pcTimerName;
 1672              		.loc 1 457 2 is_stmt 1 view .LVU450
 1673              	.LBB56:
 1674              	.LBI56:
 191:Middlewares/Third_Party/FreeRTOS/Source/portable/GCC/ARM_CM3/portmacro.h **** {
 1675              		.loc 2 191 30 view .LVU451
 1676              	.LBB57:
 193:Middlewares/Third_Party/FreeRTOS/Source/portable/GCC/ARM_CM3/portmacro.h **** 
 1677              		.loc 2 193 1 view .LVU452
 1678              		.loc 2 195 2 view .LVU453
 1679              		.syntax unified
 1680              	@ 195 "Middlewares/Third_Party/FreeRTOS/Source/portable/GCC/ARM_CM3/portmacro.h" 1
 1681 0006 4FF01003 			mov r3, #16												
 1682 000a 83F31188 		msr basepri, r3											
 1683 000e BFF36F8F 		isb														
 1684 0012 BFF34F8F 		dsb														
 1685              	
 1686              	@ 0 "" 2
 1687              	.LVL137:
 1688              		.thumb
 1689              		.syntax unified
 1690              	.L126:
ARM GAS  C:\Users\randommm\AppData\Local\Temp\ccIzDNWf.s 			page 57


 1691              		.loc 2 195 2 is_stmt 0 view .LVU454
 1692              	.LBE57:
 1693              	.LBE56:
 457:Middlewares/Third_Party/FreeRTOS/Source/timers.c **** 	return pxTimer->pcTimerName;
 1694              		.loc 1 457 2 is_stmt 1 discriminator 1 view .LVU455
 457:Middlewares/Third_Party/FreeRTOS/Source/timers.c **** 	return pxTimer->pcTimerName;
 1695              		.loc 1 457 2 discriminator 1 view .LVU456
 457:Middlewares/Third_Party/FreeRTOS/Source/timers.c **** 	return pxTimer->pcTimerName;
 1696              		.loc 1 457 2 discriminator 1 view .LVU457
 1697 0016 FEE7     		b	.L126
 1698              		.cfi_endproc
 1699              	.LFE12:
 1701              		.section	.text.xTimerIsTimerActive,"ax",%progbits
 1702              		.align	1
 1703              		.global	xTimerIsTimerActive
 1704              		.syntax unified
 1705              		.thumb
 1706              		.thumb_func
 1707              		.fpu softvfp
 1709              	xTimerIsTimerActive:
 1710              	.LVL138:
 1711              	.LFB22:
 943:Middlewares/Third_Party/FreeRTOS/Source/timers.c **** /*-----------------------------------------------------------*/
 944:Middlewares/Third_Party/FreeRTOS/Source/timers.c **** 
 945:Middlewares/Third_Party/FreeRTOS/Source/timers.c **** BaseType_t xTimerIsTimerActive( TimerHandle_t xTimer )
 946:Middlewares/Third_Party/FreeRTOS/Source/timers.c **** {
 1712              		.loc 1 946 1 view -0
 1713              		.cfi_startproc
 1714              		@ args = 0, pretend = 0, frame = 0
 1715              		@ frame_needed = 0, uses_anonymous_args = 0
 947:Middlewares/Third_Party/FreeRTOS/Source/timers.c **** BaseType_t xTimerIsInActiveList;
 1716              		.loc 1 947 1 view .LVU459
 948:Middlewares/Third_Party/FreeRTOS/Source/timers.c **** Timer_t *pxTimer = ( Timer_t * ) xTimer;
 1717              		.loc 1 948 1 view .LVU460
 949:Middlewares/Third_Party/FreeRTOS/Source/timers.c **** 
 950:Middlewares/Third_Party/FreeRTOS/Source/timers.c **** 	configASSERT( xTimer );
 1718              		.loc 1 950 2 view .LVU461
 1719 0000 58B1     		cbz	r0, .L133
 946:Middlewares/Third_Party/FreeRTOS/Source/timers.c **** BaseType_t xTimerIsInActiveList;
 1720              		.loc 1 946 1 is_stmt 0 discriminator 2 view .LVU462
 1721 0002 10B5     		push	{r4, lr}
 1722              	.LCFI31:
 1723              		.cfi_def_cfa_offset 8
 1724              		.cfi_offset 4, -8
 1725              		.cfi_offset 14, -4
 1726 0004 0446     		mov	r4, r0
 1727              		.loc 1 950 24 is_stmt 1 discriminator 2 view .LVU463
 951:Middlewares/Third_Party/FreeRTOS/Source/timers.c **** 
 952:Middlewares/Third_Party/FreeRTOS/Source/timers.c **** 	/* Is the timer in the list of active timers? */
 953:Middlewares/Third_Party/FreeRTOS/Source/timers.c **** 	taskENTER_CRITICAL();
 1728              		.loc 1 953 2 discriminator 2 view .LVU464
 1729 0006 FFF7FEFF 		bl	vPortEnterCritical
 1730              	.LVL139:
 954:Middlewares/Third_Party/FreeRTOS/Source/timers.c **** 	{
 955:Middlewares/Third_Party/FreeRTOS/Source/timers.c **** 		/* Checking to see if it is in the NULL list in effect checks to see if
 956:Middlewares/Third_Party/FreeRTOS/Source/timers.c **** 		it is referenced from either the current or the overflow timer lists in
 957:Middlewares/Third_Party/FreeRTOS/Source/timers.c **** 		one go, but the logic has to be reversed, hence the '!'. */
ARM GAS  C:\Users\randommm\AppData\Local\Temp\ccIzDNWf.s 			page 58


 958:Middlewares/Third_Party/FreeRTOS/Source/timers.c **** 		xTimerIsInActiveList = ( BaseType_t ) !( listIS_CONTAINED_WITHIN( NULL, &( pxTimer->xTimerListIte
 1731              		.loc 1 958 3 discriminator 2 view .LVU465
 1732              		.loc 1 958 44 is_stmt 0 discriminator 2 view .LVU466
 1733 000a 6469     		ldr	r4, [r4, #20]
 1734              	.LVL140:
 1735              		.loc 1 958 26 discriminator 2 view .LVU467
 1736 000c 003C     		subs	r4, r4, #0
 1737 000e 18BF     		it	ne
 1738 0010 0124     		movne	r4, #1
 1739              	.LVL141:
 959:Middlewares/Third_Party/FreeRTOS/Source/timers.c **** 	}
 960:Middlewares/Third_Party/FreeRTOS/Source/timers.c **** 	taskEXIT_CRITICAL();
 1740              		.loc 1 960 2 is_stmt 1 discriminator 2 view .LVU468
 1741 0012 FFF7FEFF 		bl	vPortExitCritical
 1742              	.LVL142:
 961:Middlewares/Third_Party/FreeRTOS/Source/timers.c **** 
 962:Middlewares/Third_Party/FreeRTOS/Source/timers.c **** 	return xTimerIsInActiveList;
 1743              		.loc 1 962 2 discriminator 2 view .LVU469
 963:Middlewares/Third_Party/FreeRTOS/Source/timers.c **** } /*lint !e818 Can't be pointer to const due to the typedef. */
 1744              		.loc 1 963 1 is_stmt 0 discriminator 2 view .LVU470
 1745 0016 2046     		mov	r0, r4
 1746 0018 10BD     		pop	{r4, pc}
 1747              	.LVL143:
 1748              	.L133:
 1749              	.LCFI32:
 1750              		.cfi_def_cfa_offset 0
 1751              		.cfi_restore 4
 1752              		.cfi_restore 14
 950:Middlewares/Third_Party/FreeRTOS/Source/timers.c **** 
 1753              		.loc 1 950 2 is_stmt 1 view .LVU471
 1754              	.LBB58:
 1755              	.LBI58:
 191:Middlewares/Third_Party/FreeRTOS/Source/portable/GCC/ARM_CM3/portmacro.h **** {
 1756              		.loc 2 191 30 view .LVU472
 1757              	.LBB59:
 193:Middlewares/Third_Party/FreeRTOS/Source/portable/GCC/ARM_CM3/portmacro.h **** 
 1758              		.loc 2 193 1 view .LVU473
 1759              		.loc 2 195 2 view .LVU474
 1760              		.syntax unified
 1761              	@ 195 "Middlewares/Third_Party/FreeRTOS/Source/portable/GCC/ARM_CM3/portmacro.h" 1
 1762 001a 4FF01003 			mov r3, #16												
 1763 001e 83F31188 		msr basepri, r3											
 1764 0022 BFF36F8F 		isb														
 1765 0026 BFF34F8F 		dsb														
 1766              	
 1767              	@ 0 "" 2
 1768              	.LVL144:
 1769              		.thumb
 1770              		.syntax unified
 1771              	.L130:
 1772              		.loc 2 195 2 is_stmt 0 view .LVU475
 1773              	.LBE59:
 1774              	.LBE58:
 950:Middlewares/Third_Party/FreeRTOS/Source/timers.c **** 
 1775              		.loc 1 950 2 is_stmt 1 discriminator 1 view .LVU476
 950:Middlewares/Third_Party/FreeRTOS/Source/timers.c **** 
 1776              		.loc 1 950 2 discriminator 1 view .LVU477
ARM GAS  C:\Users\randommm\AppData\Local\Temp\ccIzDNWf.s 			page 59


 950:Middlewares/Third_Party/FreeRTOS/Source/timers.c **** 
 1777              		.loc 1 950 2 discriminator 1 view .LVU478
 1778 002a FEE7     		b	.L130
 1779              		.cfi_endproc
 1780              	.LFE22:
 1782              		.section	.text.pvTimerGetTimerID,"ax",%progbits
 1783              		.align	1
 1784              		.global	pvTimerGetTimerID
 1785              		.syntax unified
 1786              		.thumb
 1787              		.thumb_func
 1788              		.fpu softvfp
 1790              	pvTimerGetTimerID:
 1791              	.LVL145:
 1792              	.LFB23:
 964:Middlewares/Third_Party/FreeRTOS/Source/timers.c **** /*-----------------------------------------------------------*/
 965:Middlewares/Third_Party/FreeRTOS/Source/timers.c **** 
 966:Middlewares/Third_Party/FreeRTOS/Source/timers.c **** void *pvTimerGetTimerID( const TimerHandle_t xTimer )
 967:Middlewares/Third_Party/FreeRTOS/Source/timers.c **** {
 1793              		.loc 1 967 1 view -0
 1794              		.cfi_startproc
 1795              		@ args = 0, pretend = 0, frame = 0
 1796              		@ frame_needed = 0, uses_anonymous_args = 0
 968:Middlewares/Third_Party/FreeRTOS/Source/timers.c **** Timer_t * const pxTimer = ( Timer_t * ) xTimer;
 1797              		.loc 1 968 1 view .LVU480
 969:Middlewares/Third_Party/FreeRTOS/Source/timers.c **** void *pvReturn;
 1798              		.loc 1 969 1 view .LVU481
 970:Middlewares/Third_Party/FreeRTOS/Source/timers.c **** 
 971:Middlewares/Third_Party/FreeRTOS/Source/timers.c **** 	configASSERT( xTimer );
 1799              		.loc 1 971 2 view .LVU482
 1800 0000 40B1     		cbz	r0, .L139
 967:Middlewares/Third_Party/FreeRTOS/Source/timers.c **** Timer_t * const pxTimer = ( Timer_t * ) xTimer;
 1801              		.loc 1 967 1 is_stmt 0 discriminator 2 view .LVU483
 1802 0002 10B5     		push	{r4, lr}
 1803              	.LCFI33:
 1804              		.cfi_def_cfa_offset 8
 1805              		.cfi_offset 4, -8
 1806              		.cfi_offset 14, -4
 1807 0004 0446     		mov	r4, r0
 1808              		.loc 1 971 24 is_stmt 1 discriminator 2 view .LVU484
 972:Middlewares/Third_Party/FreeRTOS/Source/timers.c **** 
 973:Middlewares/Third_Party/FreeRTOS/Source/timers.c **** 	taskENTER_CRITICAL();
 1809              		.loc 1 973 2 discriminator 2 view .LVU485
 1810 0006 FFF7FEFF 		bl	vPortEnterCritical
 1811              	.LVL146:
 974:Middlewares/Third_Party/FreeRTOS/Source/timers.c **** 	{
 975:Middlewares/Third_Party/FreeRTOS/Source/timers.c **** 		pvReturn = pxTimer->pvTimerID;
 1812              		.loc 1 975 3 discriminator 2 view .LVU486
 1813              		.loc 1 975 12 is_stmt 0 discriminator 2 view .LVU487
 1814 000a 246A     		ldr	r4, [r4, #32]
 1815              	.LVL147:
 976:Middlewares/Third_Party/FreeRTOS/Source/timers.c **** 	}
 977:Middlewares/Third_Party/FreeRTOS/Source/timers.c **** 	taskEXIT_CRITICAL();
 1816              		.loc 1 977 2 is_stmt 1 discriminator 2 view .LVU488
 1817 000c FFF7FEFF 		bl	vPortExitCritical
 1818              	.LVL148:
 978:Middlewares/Third_Party/FreeRTOS/Source/timers.c **** 
ARM GAS  C:\Users\randommm\AppData\Local\Temp\ccIzDNWf.s 			page 60


 979:Middlewares/Third_Party/FreeRTOS/Source/timers.c **** 	return pvReturn;
 1819              		.loc 1 979 2 discriminator 2 view .LVU489
 980:Middlewares/Third_Party/FreeRTOS/Source/timers.c **** }
 1820              		.loc 1 980 1 is_stmt 0 discriminator 2 view .LVU490
 1821 0010 2046     		mov	r0, r4
 1822 0012 10BD     		pop	{r4, pc}
 1823              	.LVL149:
 1824              	.L139:
 1825              	.LCFI34:
 1826              		.cfi_def_cfa_offset 0
 1827              		.cfi_restore 4
 1828              		.cfi_restore 14
 971:Middlewares/Third_Party/FreeRTOS/Source/timers.c **** 
 1829              		.loc 1 971 2 is_stmt 1 view .LVU491
 1830              	.LBB60:
 1831              	.LBI60:
 191:Middlewares/Third_Party/FreeRTOS/Source/portable/GCC/ARM_CM3/portmacro.h **** {
 1832              		.loc 2 191 30 view .LVU492
 1833              	.LBB61:
 193:Middlewares/Third_Party/FreeRTOS/Source/portable/GCC/ARM_CM3/portmacro.h **** 
 1834              		.loc 2 193 1 view .LVU493
 1835              		.loc 2 195 2 view .LVU494
 1836              		.syntax unified
 1837              	@ 195 "Middlewares/Third_Party/FreeRTOS/Source/portable/GCC/ARM_CM3/portmacro.h" 1
 1838 0014 4FF01003 			mov r3, #16												
 1839 0018 83F31188 		msr basepri, r3											
 1840 001c BFF36F8F 		isb														
 1841 0020 BFF34F8F 		dsb														
 1842              	
 1843              	@ 0 "" 2
 1844              	.LVL150:
 1845              		.thumb
 1846              		.syntax unified
 1847              	.L136:
 1848              		.loc 2 195 2 is_stmt 0 view .LVU495
 1849              	.LBE61:
 1850              	.LBE60:
 971:Middlewares/Third_Party/FreeRTOS/Source/timers.c **** 
 1851              		.loc 1 971 2 is_stmt 1 discriminator 1 view .LVU496
 971:Middlewares/Third_Party/FreeRTOS/Source/timers.c **** 
 1852              		.loc 1 971 2 discriminator 1 view .LVU497
 971:Middlewares/Third_Party/FreeRTOS/Source/timers.c **** 
 1853              		.loc 1 971 2 discriminator 1 view .LVU498
 1854 0024 FEE7     		b	.L136
 1855              		.cfi_endproc
 1856              	.LFE23:
 1858              		.section	.text.vTimerSetTimerID,"ax",%progbits
 1859              		.align	1
 1860              		.global	vTimerSetTimerID
 1861              		.syntax unified
 1862              		.thumb
 1863              		.thumb_func
 1864              		.fpu softvfp
 1866              	vTimerSetTimerID:
 1867              	.LVL151:
 1868              	.LFB24:
 981:Middlewares/Third_Party/FreeRTOS/Source/timers.c **** /*-----------------------------------------------------------*/
ARM GAS  C:\Users\randommm\AppData\Local\Temp\ccIzDNWf.s 			page 61


 982:Middlewares/Third_Party/FreeRTOS/Source/timers.c **** 
 983:Middlewares/Third_Party/FreeRTOS/Source/timers.c **** void vTimerSetTimerID( TimerHandle_t xTimer, void *pvNewID )
 984:Middlewares/Third_Party/FreeRTOS/Source/timers.c **** {
 1869              		.loc 1 984 1 view -0
 1870              		.cfi_startproc
 1871              		@ args = 0, pretend = 0, frame = 0
 1872              		@ frame_needed = 0, uses_anonymous_args = 0
 1873              		.loc 1 984 1 is_stmt 0 view .LVU500
 1874 0000 38B5     		push	{r3, r4, r5, lr}
 1875              	.LCFI35:
 1876              		.cfi_def_cfa_offset 16
 1877              		.cfi_offset 3, -16
 1878              		.cfi_offset 4, -12
 1879              		.cfi_offset 5, -8
 1880              		.cfi_offset 14, -4
 985:Middlewares/Third_Party/FreeRTOS/Source/timers.c **** Timer_t * const pxTimer = ( Timer_t * ) xTimer;
 1881              		.loc 1 985 1 is_stmt 1 view .LVU501
 1882              	.LVL152:
 986:Middlewares/Third_Party/FreeRTOS/Source/timers.c **** 
 987:Middlewares/Third_Party/FreeRTOS/Source/timers.c **** 	configASSERT( xTimer );
 1883              		.loc 1 987 2 view .LVU502
 1884 0002 38B1     		cbz	r0, .L144
 1885 0004 0C46     		mov	r4, r1
 1886 0006 0546     		mov	r5, r0
 1887              		.loc 1 987 24 discriminator 2 view .LVU503
 988:Middlewares/Third_Party/FreeRTOS/Source/timers.c **** 
 989:Middlewares/Third_Party/FreeRTOS/Source/timers.c **** 	taskENTER_CRITICAL();
 1888              		.loc 1 989 2 discriminator 2 view .LVU504
 1889 0008 FFF7FEFF 		bl	vPortEnterCritical
 1890              	.LVL153:
 990:Middlewares/Third_Party/FreeRTOS/Source/timers.c **** 	{
 991:Middlewares/Third_Party/FreeRTOS/Source/timers.c **** 		pxTimer->pvTimerID = pvNewID;
 1891              		.loc 1 991 3 discriminator 2 view .LVU505
 1892              		.loc 1 991 22 is_stmt 0 discriminator 2 view .LVU506
 1893 000c 2C62     		str	r4, [r5, #32]
 992:Middlewares/Third_Party/FreeRTOS/Source/timers.c **** 	}
 993:Middlewares/Third_Party/FreeRTOS/Source/timers.c **** 	taskEXIT_CRITICAL();
 1894              		.loc 1 993 2 is_stmt 1 discriminator 2 view .LVU507
 1895 000e FFF7FEFF 		bl	vPortExitCritical
 1896              	.LVL154:
 994:Middlewares/Third_Party/FreeRTOS/Source/timers.c **** }
 1897              		.loc 1 994 1 is_stmt 0 discriminator 2 view .LVU508
 1898 0012 38BD     		pop	{r3, r4, r5, pc}
 1899              	.LVL155:
 1900              	.L144:
 987:Middlewares/Third_Party/FreeRTOS/Source/timers.c **** 
 1901              		.loc 1 987 2 is_stmt 1 view .LVU509
 1902              	.LBB62:
 1903              	.LBI62:
 191:Middlewares/Third_Party/FreeRTOS/Source/portable/GCC/ARM_CM3/portmacro.h **** {
 1904              		.loc 2 191 30 view .LVU510
 1905              	.LBB63:
 193:Middlewares/Third_Party/FreeRTOS/Source/portable/GCC/ARM_CM3/portmacro.h **** 
 1906              		.loc 2 193 1 view .LVU511
 1907              		.loc 2 195 2 view .LVU512
 1908              		.syntax unified
 1909              	@ 195 "Middlewares/Third_Party/FreeRTOS/Source/portable/GCC/ARM_CM3/portmacro.h" 1
ARM GAS  C:\Users\randommm\AppData\Local\Temp\ccIzDNWf.s 			page 62


 1910 0014 4FF01003 			mov r3, #16												
 1911 0018 83F31188 		msr basepri, r3											
 1912 001c BFF36F8F 		isb														
 1913 0020 BFF34F8F 		dsb														
 1914              	
 1915              	@ 0 "" 2
 1916              	.LVL156:
 1917              		.thumb
 1918              		.syntax unified
 1919              	.L142:
 1920              		.loc 2 195 2 is_stmt 0 view .LVU513
 1921              	.LBE63:
 1922              	.LBE62:
 987:Middlewares/Third_Party/FreeRTOS/Source/timers.c **** 
 1923              		.loc 1 987 2 is_stmt 1 discriminator 1 view .LVU514
 987:Middlewares/Third_Party/FreeRTOS/Source/timers.c **** 
 1924              		.loc 1 987 2 discriminator 1 view .LVU515
 987:Middlewares/Third_Party/FreeRTOS/Source/timers.c **** 
 1925              		.loc 1 987 2 discriminator 1 view .LVU516
 1926 0024 FEE7     		b	.L142
 1927              		.cfi_endproc
 1928              	.LFE24:
 1930              		.section	.text.xTimerPendFunctionCallFromISR,"ax",%progbits
 1931              		.align	1
 1932              		.global	xTimerPendFunctionCallFromISR
 1933              		.syntax unified
 1934              		.thumb
 1935              		.thumb_func
 1936              		.fpu softvfp
 1938              	xTimerPendFunctionCallFromISR:
 1939              	.LVL157:
 1940              	.LFB25:
 995:Middlewares/Third_Party/FreeRTOS/Source/timers.c **** /*-----------------------------------------------------------*/
 996:Middlewares/Third_Party/FreeRTOS/Source/timers.c **** 
 997:Middlewares/Third_Party/FreeRTOS/Source/timers.c **** #if( INCLUDE_xTimerPendFunctionCall == 1 )
 998:Middlewares/Third_Party/FreeRTOS/Source/timers.c **** 
 999:Middlewares/Third_Party/FreeRTOS/Source/timers.c **** 	BaseType_t xTimerPendFunctionCallFromISR( PendedFunction_t xFunctionToPend, void *pvParameter1, ui
1000:Middlewares/Third_Party/FreeRTOS/Source/timers.c **** 	{
 1941              		.loc 1 1000 2 view -0
 1942              		.cfi_startproc
 1943              		@ args = 0, pretend = 0, frame = 16
 1944              		@ frame_needed = 0, uses_anonymous_args = 0
 1945              		.loc 1 1000 2 is_stmt 0 view .LVU518
 1946 0000 10B5     		push	{r4, lr}
 1947              	.LCFI36:
 1948              		.cfi_def_cfa_offset 8
 1949              		.cfi_offset 4, -8
 1950              		.cfi_offset 14, -4
 1951 0002 84B0     		sub	sp, sp, #16
 1952              	.LCFI37:
 1953              		.cfi_def_cfa_offset 24
 1954 0004 1446     		mov	r4, r2
 1955 0006 1A46     		mov	r2, r3
 1956              	.LVL158:
1001:Middlewares/Third_Party/FreeRTOS/Source/timers.c **** 	DaemonTaskMessage_t xMessage;
 1957              		.loc 1 1001 2 is_stmt 1 view .LVU519
1002:Middlewares/Third_Party/FreeRTOS/Source/timers.c **** 	BaseType_t xReturn;
ARM GAS  C:\Users\randommm\AppData\Local\Temp\ccIzDNWf.s 			page 63


 1958              		.loc 1 1002 2 view .LVU520
1003:Middlewares/Third_Party/FreeRTOS/Source/timers.c **** 
1004:Middlewares/Third_Party/FreeRTOS/Source/timers.c **** 		/* Complete the message with the function parameters and post it to the
1005:Middlewares/Third_Party/FreeRTOS/Source/timers.c **** 		daemon task. */
1006:Middlewares/Third_Party/FreeRTOS/Source/timers.c **** 		xMessage.xMessageID = tmrCOMMAND_EXECUTE_CALLBACK_FROM_ISR;
 1959              		.loc 1 1006 3 view .LVU521
 1960              		.loc 1 1006 23 is_stmt 0 view .LVU522
 1961 0008 6FF00103 		mvn	r3, #1
 1962              	.LVL159:
 1963              		.loc 1 1006 23 view .LVU523
 1964 000c 0093     		str	r3, [sp]
1007:Middlewares/Third_Party/FreeRTOS/Source/timers.c **** 		xMessage.u.xCallbackParameters.pxCallbackFunction = xFunctionToPend;
 1965              		.loc 1 1007 3 is_stmt 1 view .LVU524
 1966              		.loc 1 1007 53 is_stmt 0 view .LVU525
 1967 000e 0190     		str	r0, [sp, #4]
1008:Middlewares/Third_Party/FreeRTOS/Source/timers.c **** 		xMessage.u.xCallbackParameters.pvParameter1 = pvParameter1;
 1968              		.loc 1 1008 3 is_stmt 1 view .LVU526
 1969              		.loc 1 1008 47 is_stmt 0 view .LVU527
 1970 0010 0291     		str	r1, [sp, #8]
1009:Middlewares/Third_Party/FreeRTOS/Source/timers.c **** 		xMessage.u.xCallbackParameters.ulParameter2 = ulParameter2;
 1971              		.loc 1 1009 3 is_stmt 1 view .LVU528
 1972              		.loc 1 1009 47 is_stmt 0 view .LVU529
 1973 0012 0394     		str	r4, [sp, #12]
1010:Middlewares/Third_Party/FreeRTOS/Source/timers.c **** 
1011:Middlewares/Third_Party/FreeRTOS/Source/timers.c **** 		xReturn = xQueueSendFromISR( xTimerQueue, &xMessage, pxHigherPriorityTaskWoken );
 1974              		.loc 1 1011 3 is_stmt 1 view .LVU530
 1975              		.loc 1 1011 13 is_stmt 0 view .LVU531
 1976 0014 0023     		movs	r3, #0
 1977 0016 6946     		mov	r1, sp
 1978              	.LVL160:
 1979              		.loc 1 1011 13 view .LVU532
 1980 0018 0248     		ldr	r0, .L147
 1981              	.LVL161:
 1982              		.loc 1 1011 13 view .LVU533
 1983 001a 0068     		ldr	r0, [r0]
 1984 001c FFF7FEFF 		bl	xQueueGenericSendFromISR
 1985              	.LVL162:
1012:Middlewares/Third_Party/FreeRTOS/Source/timers.c **** 
1013:Middlewares/Third_Party/FreeRTOS/Source/timers.c **** 		tracePEND_FUNC_CALL_FROM_ISR( xFunctionToPend, pvParameter1, ulParameter2, xReturn );
 1986              		.loc 1 1013 87 is_stmt 1 view .LVU534
1014:Middlewares/Third_Party/FreeRTOS/Source/timers.c **** 
1015:Middlewares/Third_Party/FreeRTOS/Source/timers.c **** 		return xReturn;
 1987              		.loc 1 1015 3 view .LVU535
1016:Middlewares/Third_Party/FreeRTOS/Source/timers.c **** 	}
 1988              		.loc 1 1016 2 is_stmt 0 view .LVU536
 1989 0020 04B0     		add	sp, sp, #16
 1990              	.LCFI38:
 1991              		.cfi_def_cfa_offset 8
 1992              		@ sp needed
 1993 0022 10BD     		pop	{r4, pc}
 1994              	.LVL163:
 1995              	.L148:
 1996              		.loc 1 1016 2 view .LVU537
 1997              		.align	2
 1998              	.L147:
 1999 0024 00000000 		.word	.LANCHOR2
 2000              		.cfi_endproc
ARM GAS  C:\Users\randommm\AppData\Local\Temp\ccIzDNWf.s 			page 64


 2001              	.LFE25:
 2003              		.section	.text.xTimerPendFunctionCall,"ax",%progbits
 2004              		.align	1
 2005              		.global	xTimerPendFunctionCall
 2006              		.syntax unified
 2007              		.thumb
 2008              		.thumb_func
 2009              		.fpu softvfp
 2011              	xTimerPendFunctionCall:
 2012              	.LVL164:
 2013              	.LFB26:
1017:Middlewares/Third_Party/FreeRTOS/Source/timers.c **** 
1018:Middlewares/Third_Party/FreeRTOS/Source/timers.c **** #endif /* INCLUDE_xTimerPendFunctionCall */
1019:Middlewares/Third_Party/FreeRTOS/Source/timers.c **** /*-----------------------------------------------------------*/
1020:Middlewares/Third_Party/FreeRTOS/Source/timers.c **** 
1021:Middlewares/Third_Party/FreeRTOS/Source/timers.c **** #if( INCLUDE_xTimerPendFunctionCall == 1 )
1022:Middlewares/Third_Party/FreeRTOS/Source/timers.c **** 
1023:Middlewares/Third_Party/FreeRTOS/Source/timers.c **** 	BaseType_t xTimerPendFunctionCall( PendedFunction_t xFunctionToPend, void *pvParameter1, uint32_t 
1024:Middlewares/Third_Party/FreeRTOS/Source/timers.c **** 	{
 2014              		.loc 1 1024 2 is_stmt 1 view -0
 2015              		.cfi_startproc
 2016              		@ args = 0, pretend = 0, frame = 16
 2017              		@ frame_needed = 0, uses_anonymous_args = 0
 2018              		.loc 1 1024 2 is_stmt 0 view .LVU539
 2019 0000 30B5     		push	{r4, r5, lr}
 2020              	.LCFI39:
 2021              		.cfi_def_cfa_offset 12
 2022              		.cfi_offset 4, -12
 2023              		.cfi_offset 5, -8
 2024              		.cfi_offset 14, -4
 2025 0002 85B0     		sub	sp, sp, #20
 2026              	.LCFI40:
 2027              		.cfi_def_cfa_offset 32
 2028 0004 0C46     		mov	r4, r1
 2029 0006 1146     		mov	r1, r2
 2030              	.LVL165:
 2031              		.loc 1 1024 2 view .LVU540
 2032 0008 1A46     		mov	r2, r3
 2033              	.LVL166:
1025:Middlewares/Third_Party/FreeRTOS/Source/timers.c **** 	DaemonTaskMessage_t xMessage;
 2034              		.loc 1 1025 2 is_stmt 1 view .LVU541
1026:Middlewares/Third_Party/FreeRTOS/Source/timers.c **** 	BaseType_t xReturn;
 2035              		.loc 1 1026 2 view .LVU542
1027:Middlewares/Third_Party/FreeRTOS/Source/timers.c **** 
1028:Middlewares/Third_Party/FreeRTOS/Source/timers.c **** 		/* This function can only be called after a timer has been created or
1029:Middlewares/Third_Party/FreeRTOS/Source/timers.c **** 		after the scheduler has been started because, until then, the timer
1030:Middlewares/Third_Party/FreeRTOS/Source/timers.c **** 		queue does not exist. */
1031:Middlewares/Third_Party/FreeRTOS/Source/timers.c **** 		configASSERT( xTimerQueue );
 2036              		.loc 1 1031 3 view .LVU543
 2037 000a 0C4B     		ldr	r3, .L154
 2038              	.LVL167:
 2039              		.loc 1 1031 3 is_stmt 0 view .LVU544
 2040 000c 1D68     		ldr	r5, [r3]
 2041 000e 65B1     		cbz	r5, .L153
 2042              		.loc 1 1031 30 is_stmt 1 discriminator 2 view .LVU545
1032:Middlewares/Third_Party/FreeRTOS/Source/timers.c **** 
1033:Middlewares/Third_Party/FreeRTOS/Source/timers.c **** 		/* Complete the message with the function parameters and post it to the
ARM GAS  C:\Users\randommm\AppData\Local\Temp\ccIzDNWf.s 			page 65


1034:Middlewares/Third_Party/FreeRTOS/Source/timers.c **** 		daemon task. */
1035:Middlewares/Third_Party/FreeRTOS/Source/timers.c **** 		xMessage.xMessageID = tmrCOMMAND_EXECUTE_CALLBACK;
 2043              		.loc 1 1035 3 discriminator 2 view .LVU546
 2044              		.loc 1 1035 23 is_stmt 0 discriminator 2 view .LVU547
 2045 0010 4FF0FF33 		mov	r3, #-1
 2046 0014 0093     		str	r3, [sp]
1036:Middlewares/Third_Party/FreeRTOS/Source/timers.c **** 		xMessage.u.xCallbackParameters.pxCallbackFunction = xFunctionToPend;
 2047              		.loc 1 1036 3 is_stmt 1 discriminator 2 view .LVU548
 2048              		.loc 1 1036 53 is_stmt 0 discriminator 2 view .LVU549
 2049 0016 0190     		str	r0, [sp, #4]
1037:Middlewares/Third_Party/FreeRTOS/Source/timers.c **** 		xMessage.u.xCallbackParameters.pvParameter1 = pvParameter1;
 2050              		.loc 1 1037 3 is_stmt 1 discriminator 2 view .LVU550
 2051              		.loc 1 1037 47 is_stmt 0 discriminator 2 view .LVU551
 2052 0018 0294     		str	r4, [sp, #8]
1038:Middlewares/Third_Party/FreeRTOS/Source/timers.c **** 		xMessage.u.xCallbackParameters.ulParameter2 = ulParameter2;
 2053              		.loc 1 1038 3 is_stmt 1 discriminator 2 view .LVU552
 2054              		.loc 1 1038 47 is_stmt 0 discriminator 2 view .LVU553
 2055 001a 0391     		str	r1, [sp, #12]
1039:Middlewares/Third_Party/FreeRTOS/Source/timers.c **** 
1040:Middlewares/Third_Party/FreeRTOS/Source/timers.c **** 		xReturn = xQueueSendToBack( xTimerQueue, &xMessage, xTicksToWait );
 2056              		.loc 1 1040 3 is_stmt 1 discriminator 2 view .LVU554
 2057              		.loc 1 1040 13 is_stmt 0 discriminator 2 view .LVU555
 2058 001c 0023     		movs	r3, #0
 2059 001e 6946     		mov	r1, sp
 2060              	.LVL168:
 2061              		.loc 1 1040 13 discriminator 2 view .LVU556
 2062 0020 2846     		mov	r0, r5
 2063              	.LVL169:
 2064              		.loc 1 1040 13 discriminator 2 view .LVU557
 2065 0022 FFF7FEFF 		bl	xQueueGenericSend
 2066              	.LVL170:
1041:Middlewares/Third_Party/FreeRTOS/Source/timers.c **** 
1042:Middlewares/Third_Party/FreeRTOS/Source/timers.c **** 		tracePEND_FUNC_CALL( xFunctionToPend, pvParameter1, ulParameter2, xReturn );
 2067              		.loc 1 1042 78 is_stmt 1 discriminator 2 view .LVU558
1043:Middlewares/Third_Party/FreeRTOS/Source/timers.c **** 
1044:Middlewares/Third_Party/FreeRTOS/Source/timers.c **** 		return xReturn;
 2068              		.loc 1 1044 3 discriminator 2 view .LVU559
1045:Middlewares/Third_Party/FreeRTOS/Source/timers.c **** 	}
 2069              		.loc 1 1045 2 is_stmt 0 discriminator 2 view .LVU560
 2070 0026 05B0     		add	sp, sp, #20
 2071              	.LCFI41:
 2072              		.cfi_remember_state
 2073              		.cfi_def_cfa_offset 12
 2074              		@ sp needed
 2075 0028 30BD     		pop	{r4, r5, pc}
 2076              	.LVL171:
 2077              	.L153:
 2078              	.LCFI42:
 2079              		.cfi_restore_state
1031:Middlewares/Third_Party/FreeRTOS/Source/timers.c **** 
 2080              		.loc 1 1031 3 is_stmt 1 view .LVU561
 2081              	.LBB64:
 2082              	.LBI64:
 191:Middlewares/Third_Party/FreeRTOS/Source/portable/GCC/ARM_CM3/portmacro.h **** {
 2083              		.loc 2 191 30 view .LVU562
 2084              	.LBB65:
 193:Middlewares/Third_Party/FreeRTOS/Source/portable/GCC/ARM_CM3/portmacro.h **** 
ARM GAS  C:\Users\randommm\AppData\Local\Temp\ccIzDNWf.s 			page 66


 2085              		.loc 2 193 1 view .LVU563
 2086              		.loc 2 195 2 view .LVU564
 2087              		.syntax unified
 2088              	@ 195 "Middlewares/Third_Party/FreeRTOS/Source/portable/GCC/ARM_CM3/portmacro.h" 1
 2089 002a 4FF01003 			mov r3, #16												
 2090 002e 83F31188 		msr basepri, r3											
 2091 0032 BFF36F8F 		isb														
 2092 0036 BFF34F8F 		dsb														
 2093              	
 2094              	@ 0 "" 2
 2095              	.LVL172:
 2096              		.thumb
 2097              		.syntax unified
 2098              	.L151:
 2099              		.loc 2 195 2 is_stmt 0 view .LVU565
 2100              	.LBE65:
 2101              	.LBE64:
1031:Middlewares/Third_Party/FreeRTOS/Source/timers.c **** 
 2102              		.loc 1 1031 3 is_stmt 1 discriminator 1 view .LVU566
1031:Middlewares/Third_Party/FreeRTOS/Source/timers.c **** 
 2103              		.loc 1 1031 3 discriminator 1 view .LVU567
1031:Middlewares/Third_Party/FreeRTOS/Source/timers.c **** 
 2104              		.loc 1 1031 3 discriminator 1 view .LVU568
 2105 003a FEE7     		b	.L151
 2106              	.L155:
 2107              		.align	2
 2108              	.L154:
 2109 003c 00000000 		.word	.LANCHOR2
 2110              		.cfi_endproc
 2111              	.LFE26:
 2113              		.section	.bss.pxCurrentTimerList,"aw",%nobits
 2114              		.align	2
 2115              		.set	.LANCHOR0,. + 0
 2118              	pxCurrentTimerList:
 2119 0000 00000000 		.space	4
 2120              		.section	.bss.pxOverflowTimerList,"aw",%nobits
 2121              		.align	2
 2122              		.set	.LANCHOR1,. + 0
 2125              	pxOverflowTimerList:
 2126 0000 00000000 		.space	4
 2127              		.section	.bss.xActiveTimerList1,"aw",%nobits
 2128              		.align	2
 2129              		.set	.LANCHOR3,. + 0
 2132              	xActiveTimerList1:
 2133 0000 00000000 		.space	20
 2133      00000000 
 2133      00000000 
 2133      00000000 
 2133      00000000 
 2134              		.section	.bss.xActiveTimerList2,"aw",%nobits
 2135              		.align	2
 2136              		.set	.LANCHOR4,. + 0
 2139              	xActiveTimerList2:
 2140 0000 00000000 		.space	20
 2140      00000000 
 2140      00000000 
 2140      00000000 
ARM GAS  C:\Users\randommm\AppData\Local\Temp\ccIzDNWf.s 			page 67


 2140      00000000 
 2141              		.section	.bss.xLastTime.0,"aw",%nobits
 2142              		.align	2
 2143              		.set	.LANCHOR6,. + 0
 2146              	xLastTime.0:
 2147 0000 00000000 		.space	4
 2148              		.section	.bss.xTimerQueue,"aw",%nobits
 2149              		.align	2
 2150              		.set	.LANCHOR2,. + 0
 2153              	xTimerQueue:
 2154 0000 00000000 		.space	4
 2155              		.section	.bss.xTimerTaskHandle,"aw",%nobits
 2156              		.align	2
 2157              		.set	.LANCHOR5,. + 0
 2160              	xTimerTaskHandle:
 2161 0000 00000000 		.space	4
 2162              		.text
 2163              	.Letext0:
 2164              		.file 3 "e:\\armchain\\10 2021.07\\arm-none-eabi\\include\\machine\\_default_types.h"
 2165              		.file 4 "e:\\armchain\\10 2021.07\\arm-none-eabi\\include\\sys\\_stdint.h"
 2166              		.file 5 "Middlewares/Third_Party/FreeRTOS/Source/include/list.h"
 2167              		.file 6 "Middlewares/Third_Party/FreeRTOS/Source/include/task.h"
 2168              		.file 7 "Middlewares/Third_Party/FreeRTOS/Source/include/queue.h"
 2169              		.file 8 "Middlewares/Third_Party/FreeRTOS/Source/include/timers.h"
 2170              		.file 9 "Middlewares/Third_Party/FreeRTOS/Source/include/portable.h"
ARM GAS  C:\Users\randommm\AppData\Local\Temp\ccIzDNWf.s 			page 68

